---
triple:          'arm64-apple-darwin'
binary-path:     '/home/alberic/hyprPad/swift/.build/arm64-apple-ios/debug/hyprPadClient-App'
relocations:
  - { offset: 0x9A450, size: 0x8, addend: 0x0, symName: __RNvNtCscanHOTX2pz9_5alloc7raw_vec12handle_error, symObjAddr: 0x3E30, symBinAddr: 0x100022B74, symSize: 0x14 }
  - { offset: 0x9A499, size: 0x8, addend: 0x0, symName: __RNvNtCscanHOTX2pz9_5alloc7raw_vec12handle_error, symObjAddr: 0x3E30, symBinAddr: 0x100022B74, symSize: 0x14 }
  - { offset: 0x9A50A, size: 0x8, addend: 0x0, symName: __RNvMs4_NtCscanHOTX2pz9_5alloc7raw_vecNtB5_11RawVecInner11finish_growB7_, symObjAddr: 0x3EBC, symBinAddr: 0x100022C00, symSize: 0x74 }
  - { offset: 0x9A7E3, size: 0x8, addend: 0x0, symName: __RINvNvMs2_NtCscanHOTX2pz9_5alloc7raw_vecINtB8_11RawVecInnerpE7reserve21do_reserve_and_handleNtNtBa_5alloc6GlobalEBa_, symObjAddr: 0x3E44, symBinAddr: 0x100022B88, symSize: 0x78 }
  - { offset: 0x9A8CA, size: 0x8, addend: 0x0, symName: __RNvNtCscanHOTX2pz9_5alloc7raw_vec17capacity_overflow, symObjAddr: 0x3F48, symBinAddr: 0x100022C8C, symSize: 0x20 }
  - { offset: 0x9A905, size: 0x8, addend: 0x0, symName: __RNvMs3_NtCscanHOTX2pz9_5alloc7raw_vecINtB5_6RawVechE8grow_oneB7_, symObjAddr: 0x4184, symBinAddr: 0x100022EC8, symSize: 0x60 }
  - { offset: 0x9AB32, size: 0x8, addend: 0x0, symName: __RNvNtCscanHOTX2pz9_5alloc5alloc18handle_alloc_error, symObjAddr: 0x3F30, symBinAddr: 0x100022C74, symSize: 0x18 }
  - { offset: 0x9AD6B, size: 0x8, addend: 0x0, symName: __RNvMNtCscanHOTX2pz9_5alloc6stringNtB2_6String15from_utf8_lossy, symObjAddr: 0x3F68, symBinAddr: 0x100022CAC, symSize: 0x21C }
  - { offset: 0x9B35A, size: 0x8, addend: 0x0, symName: __RNvXsZ_NtCscanHOTX2pz9_5alloc6stringNtB5_6StringNtNtCs4jSjb1l5x4F_4core3fmt5Write9write_str, symObjAddr: 0x448C, symBinAddr: 0x1000231D0, symSize: 0x7C }
  - { offset: 0x9B4BE, size: 0x8, addend: 0x0, symName: __RNvXsZ_NtCscanHOTX2pz9_5alloc6stringNtB5_6StringNtNtCs4jSjb1l5x4F_4core3fmt5Write10write_char, symObjAddr: 0x4508, symBinAddr: 0x10002324C, symSize: 0x110 }
  - { offset: 0x9B6BC, size: 0x8, addend: 0x0, symName: __RNvMs_NtNtCscanHOTX2pz9_5alloc3ffi5c_strNtB4_7CString19__from_vec_unchecked, symObjAddr: 0x41E4, symBinAddr: 0x100022F28, symSize: 0xDC }
  - { offset: 0x9BA2D, size: 0x8, addend: 0x0, symName: __RNvXs0_NvMs_NtNtCscanHOTX2pz9_5alloc3ffi5c_strNtBa_7CString3newReNtB5_11SpecNewImpl13spec_new_impl, symObjAddr: 0x462C, symBinAddr: 0x100023370, symSize: 0x164 }
  - { offset: 0x9BCD8, size: 0x8, addend: 0x0, symName: __RNvXs_NvMs_NtNtCscanHOTX2pz9_5alloc3ffi5c_strNtB9_7CString3newRShNtB4_11SpecNewImpl13spec_new_impl, symObjAddr: 0x47A4, symBinAddr: 0x1000234E8, symSize: 0x128 }
  - { offset: 0x9BF78, size: 0x8, addend: 0x0, symName: __RNvNvNtCscanHOTX2pz9_5alloc3fmt6format12format_inner, symObjAddr: 0x42C0, symBinAddr: 0x100023004, symSize: 0x1A0 }
  - { offset: 0x9C2E6, size: 0x8, addend: 0x0, symName: __RNvXs0_NvXsf_NtNtCscanHOTX2pz9_5alloc5boxed7convertINtBd_3BoxDNtNtCs4jSjb1l5x4F_4core5error5ErrorNtNtB12_6marker4SendNtB1z_4SyncEL_EINtNtB12_7convert4FromNtNtBf_6string6StringE4fromNtB5_11StringErrorNtNtB12_3fmt5Debug3fmt, symObjAddr: 0x4790, symBinAddr: 0x1000234D4, symSize: 0x14 }
  - { offset: 0x9C305, size: 0x8, addend: 0x0, symName: __RNvXs0_NvXsf_NtNtCscanHOTX2pz9_5alloc5boxed7convertINtBd_3BoxDNtNtCs4jSjb1l5x4F_4core5error5ErrorNtNtB12_6marker4SendNtB1z_4SyncEL_EINtNtB12_7convert4FromNtNtBf_6string6StringE4fromNtB5_11StringErrorNtNtB12_3fmt5Debug3fmt, symObjAddr: 0x4790, symBinAddr: 0x1000234D4, symSize: 0x14 }
  - { offset: 0x9C31B, size: 0x8, addend: 0x0, symName: __RNvXs0_NvXsf_NtNtCscanHOTX2pz9_5alloc5boxed7convertINtBd_3BoxDNtNtCs4jSjb1l5x4F_4core5error5ErrorNtNtB12_6marker4SendNtB1z_4SyncEL_EINtNtB12_7convert4FromNtNtBf_6string6StringE4fromNtB5_11StringErrorNtNtB12_3fmt5Debug3fmt, symObjAddr: 0x4790, symBinAddr: 0x1000234D4, symSize: 0x14 }
  - { offset: 0x9C331, size: 0x8, addend: 0x0, symName: __RNvXs0_NvXsf_NtNtCscanHOTX2pz9_5alloc5boxed7convertINtBd_3BoxDNtNtCs4jSjb1l5x4F_4core5error5ErrorNtNtB12_6marker4SendNtB1z_4SyncEL_EINtNtB12_7convert4FromNtNtBf_6string6StringE4fromNtB5_11StringErrorNtNtB12_3fmt5Debug3fmt, symObjAddr: 0x4790, symBinAddr: 0x1000234D4, symSize: 0x14 }
  - { offset: 0x9C347, size: 0x8, addend: 0x0, symName: __RNvXs0_NvXsf_NtNtCscanHOTX2pz9_5alloc5boxed7convertINtBd_3BoxDNtNtCs4jSjb1l5x4F_4core5error5ErrorNtNtB12_6marker4SendNtB1z_4SyncEL_EINtNtB12_7convert4FromNtNtBf_6string6StringE4fromNtB5_11StringErrorNtNtB12_3fmt5Debug3fmt, symObjAddr: 0x4790, symBinAddr: 0x1000234D4, symSize: 0x14 }
  - { offset: 0x9C35D, size: 0x8, addend: 0x0, symName: __RNvXs0_NvXsf_NtNtCscanHOTX2pz9_5alloc5boxed7convertINtBd_3BoxDNtNtCs4jSjb1l5x4F_4core5error5ErrorNtNtB12_6marker4SendNtB1z_4SyncEL_EINtNtB12_7convert4FromNtNtBf_6string6StringE4fromNtB5_11StringErrorNtNtB12_3fmt5Debug3fmt, symObjAddr: 0x4790, symBinAddr: 0x1000234D4, symSize: 0x14 }
  - { offset: 0x9C373, size: 0x8, addend: 0x0, symName: __RNvXs0_NvXsf_NtNtCscanHOTX2pz9_5alloc5boxed7convertINtBd_3BoxDNtNtCs4jSjb1l5x4F_4core5error5ErrorNtNtB12_6marker4SendNtB1z_4SyncEL_EINtNtB12_7convert4FromNtNtBf_6string6StringE4fromNtB5_11StringErrorNtNtB12_3fmt5Debug3fmt, symObjAddr: 0x4790, symBinAddr: 0x1000234D4, symSize: 0x14 }
  - { offset: 0x9C389, size: 0x8, addend: 0x0, symName: __RNvXs0_NvXsf_NtNtCscanHOTX2pz9_5alloc5boxed7convertINtBd_3BoxDNtNtCs4jSjb1l5x4F_4core5error5ErrorNtNtB12_6marker4SendNtB1z_4SyncEL_EINtNtB12_7convert4FromNtNtBf_6string6StringE4fromNtB5_11StringErrorNtNtB12_3fmt5Debug3fmt, symObjAddr: 0x4790, symBinAddr: 0x1000234D4, symSize: 0x14 }
  - { offset: 0x9C39F, size: 0x8, addend: 0x0, symName: __RNvXs0_NvXsf_NtNtCscanHOTX2pz9_5alloc5boxed7convertINtBd_3BoxDNtNtCs4jSjb1l5x4F_4core5error5ErrorNtNtB12_6marker4SendNtB1z_4SyncEL_EINtNtB12_7convert4FromNtNtBf_6string6StringE4fromNtB5_11StringErrorNtNtB12_3fmt5Debug3fmt, symObjAddr: 0x4790, symBinAddr: 0x1000234D4, symSize: 0x14 }
  - { offset: 0x9C3C0, size: 0x8, addend: 0x0, symName: __RNvXs_NvXsf_NtNtCscanHOTX2pz9_5alloc5boxed7convertINtBc_3BoxDNtNtCs4jSjb1l5x4F_4core5error5ErrorNtNtB11_6marker4SendNtB1y_4SyncEL_EINtNtB11_7convert4FromNtNtBe_6string6StringE4fromNtB4_11StringErrorNtNtB11_3fmt7Display3fmt, symObjAddr: 0x48CC, symBinAddr: 0x100023610, symSize: 0x10 }
  - { offset: 0x9C750, size: 0x8, addend: 0x0, symName: __RINvNtCs4jSjb1l5x4F_4core3ptr9drop_glueNtNtCscanHOTX2pz9_5alloc6string6StringEBF_, symObjAddr: 0x4478, symBinAddr: 0x1000231BC, symSize: 0x14 }
  - { offset: 0x9C8CD, size: 0x8, addend: 0x0, symName: __RNvYNtNtCscanHOTX2pz9_5alloc6string6StringNtNtCs4jSjb1l5x4F_4core3fmt5Write9write_fmtB6_, symObjAddr: 0x4618, symBinAddr: 0x10002335C, symSize: 0x14 }
  - { offset: 0x9C904, size: 0x8, addend: 0x0, symName: __RNvXsK_NtCs4jSjb1l5x4F_4core3fmtNtB5_5ErrorNtB5_5Debug3fmt, symObjAddr: 0x4460, symBinAddr: 0x1000231A4, symSize: 0x18 }
  - { offset: 0x102E63, size: 0x8, addend: 0x0, symName: __RNvCs9wFQrvczXsK_7___rustc18___rust_start_panic, symObjAddr: 0x9DC4, symBinAddr: 0x100028B08, symSize: 0xC }
  - { offset: 0x102E77, size: 0x8, addend: 0x0, symName: __RNvCs9wFQrvczXsK_7___rustc18___rust_start_panic, symObjAddr: 0x9DC4, symBinAddr: 0x100028B08, symSize: 0xC }
  - { offset: 0xFD349, size: 0x8, addend: 0x0, symName: __RNvMsa_NtCs4jSjb1l5x4F_4core3fmtNtB5_9Formatter3pad, symObjAddr: 0x4B38, symBinAddr: 0x10002387C, symSize: 0x30C }
  - { offset: 0xFD673, size: 0x8, addend: 0x0, symName: __RNvMsa_NtCs4jSjb1l5x4F_4core3fmtNtB5_9Formatter12pad_integral, symObjAddr: 0x5514, symBinAddr: 0x100024258, symSize: 0x298 }
  - { offset: 0xFDAC7, size: 0x8, addend: 0x0, symName: __RNvXs1i_NtCs4jSjb1l5x4F_4core3fmtReNtB6_7Display3fmtB8_, symObjAddr: 0x493C, symBinAddr: 0x100023680, symSize: 0x10 }
  - { offset: 0xFDB00, size: 0x8, addend: 0x0, symName: __RNvXs1g_NtCs4jSjb1l5x4F_4core3fmtRDNtB6_5DebugEL_Bx_3fmtB8_, symObjAddr: 0x494C, symBinAddr: 0x100023690, symSize: 0x10 }
  - { offset: 0xFDB1B, size: 0x8, addend: 0x0, symName: __RNvXs1g_NtCs4jSjb1l5x4F_4core3fmtRjNtB6_5Debug3fmtB8_, symObjAddr: 0x5B6C, symBinAddr: 0x1000248B0, symSize: 0xC }
  - { offset: 0xFDB82, size: 0x8, addend: 0x0, symName: __RNvNtCs4jSjb1l5x4F_4core3fmt5write, symObjAddr: 0x4984, symBinAddr: 0x1000236C8, symSize: 0x1B4 }
  - { offset: 0xFDEC0, size: 0x8, addend: 0x0, symName: __RNvMsk_NtNtNtCs4jSjb1l5x4F_4core3fmt3num3impj10__fmt_inner, symObjAddr: 0x57AC, symBinAddr: 0x1000244F0, symSize: 0x28C }
  - { offset: 0xFDF34, size: 0x8, addend: 0x0, symName: __RNvXsi_NtNtNtCs4jSjb1l5x4F_4core3fmt3num3impjNtB9_7Display3fmt, symObjAddr: 0x5A70, symBinAddr: 0x1000247B4, symSize: 0x54 }
  - { offset: 0xFDFF7, size: 0x8, addend: 0x0, symName: __RNvXs8_NtNtNtCs4jSjb1l5x4F_4core3fmt3num3impmNtB9_7Display3fmt, symObjAddr: 0x7798, symBinAddr: 0x1000264DC, symSize: 0x130 }
  - { offset: 0xFE12A, size: 0x8, addend: 0x0, symName: __RNvXNtNtNtCs4jSjb1l5x4F_4core3fmt3num3imphNtB6_7Display3fmt, symObjAddr: 0x8008, symBinAddr: 0x100026D4C, symSize: 0xB0 }
  - { offset: 0xFE219, size: 0x8, addend: 0x0, symName: __RNvXs9_NtNtNtCs4jSjb1l5x4F_4core3fmt3num3implNtB9_7Display3fmt, symObjAddr: 0x82F0, symBinAddr: 0x100027034, symSize: 0x138 }
  - { offset: 0xFE350, size: 0x8, addend: 0x0, symName: __RNvXs3_NtNtNtCs4jSjb1l5x4F_4core3fmt3num3imptNtB9_7Display3fmt, symObjAddr: 0x8794, symBinAddr: 0x1000274D8, symSize: 0xFC }
  - { offset: 0xFE45E, size: 0x8, addend: 0x0, symName: __RNvXsd_NtNtNtCs4jSjb1l5x4F_4core3fmt3num3impyNtB9_7Display3fmt, symObjAddr: 0x8978, symBinAddr: 0x1000276BC, symSize: 0x2C8 }
  - { offset: 0xFE586, size: 0x8, addend: 0x0, symName: __RNvXsZ_NtNtCs4jSjb1l5x4F_4core3fmt3numjNtB7_5Debug3fmt, symObjAddr: 0x5168, symBinAddr: 0x100023EAC, symSize: 0xE4 }
  - { offset: 0xFE6AF, size: 0x8, addend: 0x0, symName: __RNvXsg_NtNtCs4jSjb1l5x4F_4core3fmt3numhNtB7_8UpperHex3fmt, symObjAddr: 0x8278, symBinAddr: 0x100026FBC, symSize: 0x78 }
  - { offset: 0xFE746, size: 0x8, addend: 0x0, symName: __RNvXse_NtNtCs4jSjb1l5x4F_4core3fmt3numhNtB7_8LowerHex3fmt, symObjAddr: 0x8890, symBinAddr: 0x1000275D4, symSize: 0x78 }
  - { offset: 0xFE7DD, size: 0x8, addend: 0x0, symName: __RNvXsC_NtNtCs4jSjb1l5x4F_4core3fmt3numyNtB7_8LowerHex3fmt, symObjAddr: 0x8908, symBinAddr: 0x10002764C, symSize: 0x70 }
  - { offset: 0xFE8C4, size: 0x8, addend: 0x0, symName: __RNvXs0_NtNtCs4jSjb1l5x4F_4core3fmt8buildersNtB5_10PadAdapterNtB7_5Write9write_str, symObjAddr: 0x524C, symBinAddr: 0x100023F90, symSize: 0x234 }
  - { offset: 0xFEB82, size: 0x8, addend: 0x0, symName: __RNvXs0_NtNtCs4jSjb1l5x4F_4core3fmt8buildersNtB5_10PadAdapterNtB7_5Write10write_char, symObjAddr: 0x5480, symBinAddr: 0x1000241C4, symSize: 0x80 }
  - { offset: 0xFEBD3, size: 0x8, addend: 0x0, symName: __RNvMs1_NtNtCs4jSjb1l5x4F_4core3fmt8buildersNtB5_11DebugStruct5field, symObjAddr: 0x65C8, symBinAddr: 0x10002530C, symSize: 0x1AC }
  - { offset: 0xFEF23, size: 0x8, addend: 0x0, symName: __RNvMs5_NtNtCs4jSjb1l5x4F_4core3fmt8buildersNtB5_9DebugList5entry, symObjAddr: 0x6F88, symBinAddr: 0x100025CCC, symSize: 0x140 }
  - { offset: 0xFF1A0, size: 0x8, addend: 0x0, symName: __RNvYNtNtNtCs4jSjb1l5x4F_4core3fmt8builders10PadAdapterNtB6_5Write9write_fmtB8_, symObjAddr: 0x5500, symBinAddr: 0x100024244, symSize: 0x14 }
  - { offset: 0xFF1DD, size: 0x8, addend: 0x0, symName: __RNvNvMsa_NtCs4jSjb1l5x4F_4core3fmtNtB7_9Formatter12pad_integral12write_prefix, symObjAddr: 0x5AC4, symBinAddr: 0x100024808, symSize: 0x7C }
  - { offset: 0xFF22C, size: 0x8, addend: 0x0, symName: __RNvXsj_NtCs4jSjb1l5x4F_4core3fmtcNtB5_5Debug3fmt, symObjAddr: 0x7C44, symBinAddr: 0x100026988, symSize: 0xA8 }
  - { offset: 0xFF35E, size: 0x8, addend: 0x0, symName: __RNvXsh_NtCs4jSjb1l5x4F_4core3fmteNtB5_5Debug3fmt, symObjAddr: 0x8428, symBinAddr: 0x10002716C, symSize: 0x36C }
  - { offset: 0xFF852, size: 0x8, addend: 0x0, symName: __RNvXsk_NtCs4jSjb1l5x4F_4core3fmtcNtB5_7Display3fmt, symObjAddr: 0x8C40, symBinAddr: 0x100027984, symSize: 0xD4 }
  - { offset: 0xFFAE9, size: 0x8, addend: 0x0, symName: __RNvNtNtCs4jSjb1l5x4F_4core5slice6memchr14memchr_aligned, symObjAddr: 0x7E9C, symBinAddr: 0x100026BE0, symSize: 0xD8 }
  - { offset: 0xFFB0F, size: 0x8, addend: 0x0, symName: __RNvNtNtCs4jSjb1l5x4F_4core5slice6memchr14memchr_aligned, symObjAddr: 0x7E9C, symBinAddr: 0x100026BE0, symSize: 0xD8 }
  - { offset: 0xFFB24, size: 0x8, addend: 0x0, symName: __RNvNtNtCs4jSjb1l5x4F_4core5slice6memchr14memchr_aligned, symObjAddr: 0x7E9C, symBinAddr: 0x100026BE0, symSize: 0xD8 }
  - { offset: 0xFFB3A, size: 0x8, addend: 0x0, symName: __RNvNtNtCs4jSjb1l5x4F_4core5slice6memchr14memchr_aligned, symObjAddr: 0x7E9C, symBinAddr: 0x100026BE0, symSize: 0xD8 }
  - { offset: 0xFFFA8, size: 0x8, addend: 0x0, symName: __RNvNtNtCs4jSjb1l5x4F_4core5slice5index16slice_index_fail, symObjAddr: 0x6270, symBinAddr: 0x100024FB4, symSize: 0xB4 }
  - { offset: 0x1000D0, size: 0x8, addend: 0x0, symName: __RNvNtNtNtNtCs4jSjb1l5x4F_4core5slice4sort6shared9smallsort22panic_on_ord_violation, symObjAddr: 0x7FB0, symBinAddr: 0x100026CF4, symSize: 0x20 }
  - { offset: 0x100138, size: 0x8, addend: 0x0, symName: __RNvNvNtCs4jSjb1l5x4F_4core5slice20copy_from_slice_impl17len_mismatch_fail, symObjAddr: 0x7FD0, symBinAddr: 0x100026D14, symSize: 0x38 }
  - { offset: 0x100188, size: 0x8, addend: 0x0, symName: __RNvNtCs4jSjb1l5x4F_4core9panicking19assert_failed_inner, symObjAddr: 0x48DC, symBinAddr: 0x100023620, symSize: 0x60 }
  - { offset: 0x1001A4, size: 0x8, addend: 0x0, symName: __RNvNtCs4jSjb1l5x4F_4core9panicking9panic_fmt, symObjAddr: 0x495C, symBinAddr: 0x1000236A0, symSize: 0x28 }
  - { offset: 0x1001D4, size: 0x8, addend: 0x0, symName: __RNvNtCs4jSjb1l5x4F_4core9panicking18panic_bounds_check, symObjAddr: 0x5A38, symBinAddr: 0x10002477C, symSize: 0x38 }
  - { offset: 0x1001EF, size: 0x8, addend: 0x0, symName: __RINvNtCs4jSjb1l5x4F_4core9panicking13assert_failedjjEB4_, symObjAddr: 0x5B40, symBinAddr: 0x100024884, symSize: 0x2C }
  - { offset: 0x10020B, size: 0x8, addend: 0x0, symName: __RNvNtCs4jSjb1l5x4F_4core9panicking5panic, symObjAddr: 0x6340, symBinAddr: 0x100025084, symSize: 0x14 }
  - { offset: 0x100249, size: 0x8, addend: 0x0, symName: __RNvNtCs4jSjb1l5x4F_4core9panicking14panic_nounwind, symObjAddr: 0x7E0C, symBinAddr: 0x100026B50, symSize: 0x24 }
  - { offset: 0x100279, size: 0x8, addend: 0x0, symName: __RNvNtCs4jSjb1l5x4F_4core9panicking18panic_nounwind_fmt, symObjAddr: 0x7E30, symBinAddr: 0x100026B74, symSize: 0x30 }
  - { offset: 0x1002C0, size: 0x8, addend: 0x0, symName: __RNvNtCs4jSjb1l5x4F_4core9panicking19panic_cannot_unwind, symObjAddr: 0x7E60, symBinAddr: 0x100026BA4, symSize: 0xC }
  - { offset: 0x1002DB, size: 0x8, addend: 0x0, symName: __RNvNtCs4jSjb1l5x4F_4core9panicking16panic_in_cleanup, symObjAddr: 0x7E6C, symBinAddr: 0x100026BB0, symSize: 0xC }
  - { offset: 0x1002F6, size: 0x8, addend: 0x0, symName: __RNvNtCs4jSjb1l5x4F_4core9panicking26panic_nounwind_nobacktrace, symObjAddr: 0x7E78, symBinAddr: 0x100026BBC, symSize: 0x24 }
  - { offset: 0x100317, size: 0x8, addend: 0x0, symName: __RNvNtNtCs4jSjb1l5x4F_4core9panicking11panic_const23panic_const_div_by_zero, symObjAddr: 0x7F74, symBinAddr: 0x100026CB8, symSize: 0x20 }
  - { offset: 0x100332, size: 0x8, addend: 0x0, symName: __RNvNtNtCs4jSjb1l5x4F_4core9panicking11panic_const23panic_const_rem_by_zero, symObjAddr: 0x7F94, symBinAddr: 0x100026CD8, symSize: 0x1C }
  - { offset: 0x1004C5, size: 0x8, addend: 0x0, symName: __RNvNtCs4jSjb1l5x4F_4core6result13unwrap_failed, symObjAddr: 0x7DC4, symBinAddr: 0x100026B08, symSize: 0x48 }
  - { offset: 0x100535, size: 0x8, addend: 0x0, symName: __RNvNtNtCs4jSjb1l5x4F_4core3str5count14do_count_chars, symObjAddr: 0x4E44, symBinAddr: 0x100023B88, symSize: 0x324 }
  - { offset: 0x100560, size: 0x8, addend: 0x0, symName: __RNvNtNtCs4jSjb1l5x4F_4core3str5count14do_count_chars, symObjAddr: 0x4E44, symBinAddr: 0x100023B88, symSize: 0x324 }
  - { offset: 0x100A67, size: 0x8, addend: 0x0, symName: __RNvMsu_NtNtCs4jSjb1l5x4F_4core3str7patternNtB5_11StrSearcher3new, symObjAddr: 0x70C8, symBinAddr: 0x100025E0C, symSize: 0x6D0 }
  - { offset: 0x100D82, size: 0x8, addend: 0x0, symName: __RNvNtNtCs4jSjb1l5x4F_4core3str8converts9from_utf8, symObjAddr: 0x6354, symBinAddr: 0x100025098, symSize: 0x274 }
  - { offset: 0x100DA0, size: 0x8, addend: 0x0, symName: __RNvNtNtCs4jSjb1l5x4F_4core3str8converts9from_utf8, symObjAddr: 0x6354, symBinAddr: 0x100025098, symSize: 0x274 }
  - { offset: 0x100E08, size: 0x8, addend: 0x0, symName: __RNvNtCs4jSjb1l5x4F_4core3str16slice_error_fail, symObjAddr: 0x78C8, symBinAddr: 0x10002660C, symSize: 0xC }
  - { offset: 0x100EA7, size: 0x8, addend: 0x0, symName: __RNvNtCs4jSjb1l5x4F_4core3str19slice_error_fail_rt, symObjAddr: 0x78D4, symBinAddr: 0x100026618, symSize: 0x370 }
  - { offset: 0x10112B, size: 0x8, addend: 0x0, symName: __RNvXs2_NtNtCs4jSjb1l5x4F_4core3str5lossyNtB5_10Utf8ChunksNtNtNtNtB9_4iter6traits8iterator8Iterator4next, symObjAddr: 0x80B8, symBinAddr: 0x100026DFC, symSize: 0x1C0 }
  - { offset: 0x10196C, size: 0x8, addend: 0x0, symName: __RNvMNtNtCs4jSjb1l5x4F_4core4char7methodsc16escape_debug_ext, symObjAddr: 0x5B78, symBinAddr: 0x1000248BC, symSize: 0x28C }
  - { offset: 0x101BBD, size: 0x8, addend: 0x0, symName: __RNvNtNtNtCs4jSjb1l5x4F_4core7unicode12unicode_data15grapheme_extend11lookup_slow, symObjAddr: 0x6168, symBinAddr: 0x100024EAC, symSize: 0x108 }
  - { offset: 0x101DA3, size: 0x8, addend: 0x0, symName: __RNvNtNtCs4jSjb1l5x4F_4core7unicode9printable12is_printable, symObjAddr: 0x5E04, symBinAddr: 0x100024B48, symSize: 0x364 }
  - { offset: 0x102229, size: 0x8, addend: 0x0, symName: __RNvXs_NtNtCs4jSjb1l5x4F_4core3ops5rangeINtB4_5RangejENtNtB8_3fmt5Debug3fmtB8_, symObjAddr: 0x7CEC, symBinAddr: 0x100026A30, symSize: 0x60 }
  - { offset: 0x10232E, size: 0x8, addend: 0x0, symName: __RNvNtCs4jSjb1l5x4F_4core6option13unwrap_failed, symObjAddr: 0x6324, symBinAddr: 0x100025068, symSize: 0x1C }
  - { offset: 0x102381, size: 0x8, addend: 0x0, symName: __RNvNtCs4jSjb1l5x4F_4core6option13expect_failed, symObjAddr: 0x7D94, symBinAddr: 0x100026AD8, symSize: 0x30 }
  - { offset: 0x10245D, size: 0x8, addend: 0x0, symName: __RNvMNtNtCs4jSjb1l5x4F_4core3net6parserNtB2_6Parser14read_ipv4_addr, symObjAddr: 0x6774, symBinAddr: 0x1000254B8, symSize: 0x398 }
  - { offset: 0x1026F0, size: 0x8, addend: 0x0, symName: __RNCINvMNtNtCs4jSjb1l5x4F_4core3net6parserNtB5_6Parser11read_numbertE0B9_, symObjAddr: 0x6CE0, symBinAddr: 0x100025A24, symSize: 0x2A8 }
  - { offset: 0x1029A0, size: 0x8, addend: 0x0, symName: __RNvNvMNtNtCs4jSjb1l5x4F_4core3net6parserNtB4_6Parser14read_ipv6_addr11read_groups, symObjAddr: 0x6B0C, symBinAddr: 0x100025850, symSize: 0x1D4 }
  - { offset: 0x102CE3, size: 0x8, addend: 0x0, symName: __RNvNtCs4jSjb1l5x4F_4core4cell22panic_already_borrowed, symObjAddr: 0x7D4C, symBinAddr: 0x100026A90, symSize: 0x34 }
  - { offset: 0x102D32, size: 0x8, addend: 0x0, symName: __RNvXsr_NtCs4jSjb1l5x4F_4core4cellNtB5_14BorrowMutErrorNtNtB7_3fmt7Display3fmt, symObjAddr: 0x7D80, symBinAddr: 0x100026AC4, symSize: 0x14 }
  - { offset: 0x102E2D, size: 0x8, addend: 0x0, symName: _OUTLINED_FUNCTION_12, symObjAddr: 0x348A0, symBinAddr: 0x1000535E4, symSize: 0x10 }
  - { offset: 0x9CA8A, size: 0x8, addend: 0x0, symName: __RINvNtNtCs6Pvmk8MDi9B_3std3sys9backtrace26___rust_end_short_backtraceNCINvNtB6_9panicking11begin_panicReE0zEB6_, symObjAddr: 0xF6B0, symBinAddr: 0x10002E3F4, symSize: 0xC }
  - { offset: 0x9CAB8, size: 0x8, addend: 0x0, symName: __RNvNtNtCs6Pvmk8MDi9B_3std3sys9backtrace4lock, symObjAddr: 0x11B64, symBinAddr: 0x1000308A8, symSize: 0x60 }
  - { offset: 0x9CC32, size: 0x8, addend: 0x0, symName: __RNvXNvMNtNtCs6Pvmk8MDi9B_3std3sys9backtraceNtB5_13BacktraceLock5printNtB2_16DisplayBacktraceNtNtCs4jSjb1l5x4F_4core3fmt7Display3fmt, symObjAddr: 0x11EB8, symBinAddr: 0x100030BFC, symSize: 0x2C8 }
  - { offset: 0x9D62E, size: 0x8, addend: 0x0, symName: __RNCNvNtNtCs6Pvmk8MDi9B_3std3sys9backtrace10__print_fmts_0B7_, symObjAddr: 0x121E8, symBinAddr: 0x100030F2C, symSize: 0x261C }
  - { offset: 0xA327E, size: 0x8, addend: 0x0, symName: __RNCNCNvNtNtCs6Pvmk8MDi9B_3std3sys9backtrace10__print_fmts_00B9_, symObjAddr: 0x2FACC, symBinAddr: 0x10004E810, symSize: 0x25C }
  - { offset: 0xA34C3, size: 0x8, addend: 0x0, symName: __RNCNvNtNtCs6Pvmk8MDi9B_3std3sys9backtrace10__print_fmt0B7_, symObjAddr: 0x306E8, symBinAddr: 0x10004F42C, symSize: 0x20 }
  - { offset: 0xA34EE, size: 0x8, addend: 0x0, symName: __RNvNtNtCs6Pvmk8MDi9B_3std3sys9backtrace15output_filename, symObjAddr: 0x30708, symBinAddr: 0x10004F44C, symSize: 0x708 }
  - { offset: 0xA3DBA, size: 0x8, addend: 0x0, symName: __RINvNtNtCs6Pvmk8MDi9B_3std3sys9backtrace26___rust_end_short_backtraceNCNvNtB6_5alloc8rust_oom0zEB6_, symObjAddr: 0x32C44, symBinAddr: 0x100051988, symSize: 0xC }
  - { offset: 0xA3DD4, size: 0x8, addend: 0x0, symName: __RINvNtNtCs6Pvmk8MDi9B_3std3sys9backtrace26___rust_end_short_backtraceNCNvNtB6_9panicking13panic_handler0zEB6_, symObjAddr: 0x32D5C, symBinAddr: 0x100051AA0, symSize: 0xC }
  - { offset: 0xA3E16, size: 0x8, addend: 0x0, symName: _rust_eh_personality, symObjAddr: 0xF6EC, symBinAddr: 0x10002E430, symSize: 0x344 }
  - { offset: 0xA4210, size: 0x8, addend: 0x0, symName: __RNCNvNtNtNtCs6Pvmk8MDi9B_3std3sys11personality3gcc14find_eh_action0B9_, symObjAddr: 0x32C20, symBinAddr: 0x100051964, symSize: 0xC }
  - { offset: 0xA4232, size: 0x8, addend: 0x0, symName: __RNCNvNtNtNtCs6Pvmk8MDi9B_3std3sys11personality3gcc14find_eh_actions_0B9_, symObjAddr: 0x32C38, symBinAddr: 0x10005197C, symSize: 0xC }
  - { offset: 0xA4288, size: 0x8, addend: 0x0, symName: __RNvNtNtNtNtCs6Pvmk8MDi9B_3std3sys11personality5dwarf2eh19read_encoded_offset, symObjAddr: 0x32ACC, symBinAddr: 0x100051810, symSize: 0x148 }
  - { offset: 0xA4511, size: 0x8, addend: 0x0, symName: __RNvMs1_NtNtNtNtCs6Pvmk8MDi9B_3std3sys4sync6rwlock5queueNtB5_6RwLock12unlock_queue, symObjAddr: 0x10198, symBinAddr: 0x10002EEDC, symSize: 0x234 }
  - { offset: 0xA4C34, size: 0x8, addend: 0x0, symName: __RNvMs1_NtNtNtNtCs6Pvmk8MDi9B_3std3sys4sync6rwlock5queueNtB5_6RwLock21read_unlock_contended, symObjAddr: 0x31D60, symBinAddr: 0x100050AA4, symSize: 0x44 }
  - { offset: 0xA4C53, size: 0x8, addend: 0x0, symName: __RNvMs1_NtNtNtNtCs6Pvmk8MDi9B_3std3sys4sync6rwlock5queueNtB5_6RwLock21read_unlock_contended, symObjAddr: 0x31D60, symBinAddr: 0x100050AA4, symSize: 0x44 }
  - { offset: 0xA4C69, size: 0x8, addend: 0x0, symName: __RNvMs1_NtNtNtNtCs6Pvmk8MDi9B_3std3sys4sync6rwlock5queueNtB5_6RwLock21read_unlock_contended, symObjAddr: 0x31D60, symBinAddr: 0x100050AA4, symSize: 0x44 }
  - { offset: 0xA4DB4, size: 0x8, addend: 0x0, symName: __RNvMs1_NtNtNtNtCs6Pvmk8MDi9B_3std3sys4sync6rwlock5queueNtB5_6RwLock16unlock_contended, symObjAddr: 0x31E10, symBinAddr: 0x100050B54, symSize: 0x80 }
  - { offset: 0xA4F2D, size: 0x8, addend: 0x0, symName: __RNvXs0_NtNtNtNtCs6Pvmk8MDi9B_3std3sys4sync6rwlock5queueNtB5_10PanicGuardNtNtNtCs4jSjb1l5x4F_4core3ops4drop4Drop4drop, symObjAddr: 0x103CC, symBinAddr: 0x10002F110, symSize: 0x30 }
  - { offset: 0xA500B, size: 0x8, addend: 0x0, symName: __RINvMNtNtNtCs6Pvmk8MDi9B_3std3sys4sync8once_boxINtB3_7OnceBoxNtNtNtNtNtB7_3pal4unix4sync5mutex5MutexE10initializeNCNvMNtNtB5_5mutex7pthreadNtB1S_5Mutex3get0EB9_, symObjAddr: 0x10944, symBinAddr: 0x10002F688, symSize: 0xF0 }
  - { offset: 0xA53FB, size: 0x8, addend: 0x0, symName: __RINvNtNtNtNtCs6Pvmk8MDi9B_3std3sys12thread_local6native5eager7destroyINtNtCs4jSjb1l5x4F_4core4cell4CellNtNtNtBa_6thread9spawnhook10SpawnHooksEEBa_, symObjAddr: 0x33BE4, symBinAddr: 0x100052928, symSize: 0x8C }
  - { offset: 0xA55F4, size: 0x8, addend: 0x0, symName: __RNvNvNtNtNtNtCs6Pvmk8MDi9B_3std3sys12thread_local5guard5apple6enable9run_dtors, symObjAddr: 0x31798, symBinAddr: 0x1000504DC, symSize: 0xE4 }
  - { offset: 0xA5ABE, size: 0x8, addend: 0x0, symName: __RNvNtNtNtNtCs6Pvmk8MDi9B_3std3sys12thread_local11destructors4list8register, symObjAddr: 0x316A0, symBinAddr: 0x1000503E4, symSize: 0xF8 }
  - { offset: 0xA5DA3, size: 0x8, addend: 0x0, symName: __RNvXNvNtNtCs6Pvmk8MDi9B_3std3sys12thread_local20abort_on_dtor_unwindNtB2_15DtorUnwindGuardNtNtNtCs4jSjb1l5x4F_4core3ops4drop4Drop4drop, symObjAddr: 0x3411C, symBinAddr: 0x100052E60, symSize: 0x30 }
  - { offset: 0xA5E34, size: 0x8, addend: 0x0, symName: __RINvNtNtNtCs6Pvmk8MDi9B_3std3sys7helpers14small_c_string24run_with_cstr_allocatingONtNtCshWGz5kWo02a_4libc4unix3DIREB8_, symObjAddr: 0x26BF8, symBinAddr: 0x10004593C, symSize: 0xA0 }
  - { offset: 0xA5F15, size: 0x8, addend: 0x0, symName: __RINvNtNtNtCs6Pvmk8MDi9B_3std3sys7helpers14small_c_string24run_with_cstr_allocatingNtNtNtB6_2fs4unix4FileEB8_, symObjAddr: 0x2F8B8, symBinAddr: 0x10004E5FC, symSize: 0xB4 }
  - { offset: 0xA6163, size: 0x8, addend: 0x0, symName: __RNCNvNtNtNtCs6Pvmk8MDi9B_3std3sys3env4unix6getenv0B9_, symObjAddr: 0x31998, symBinAddr: 0x1000506DC, symSize: 0x3C8 }
  - { offset: 0xA6B1F, size: 0x8, addend: 0x0, symName: __RNvMNtNtNtNtNtCs6Pvmk8MDi9B_3std3sys3pal4unix4sync5mutexNtB2_5Mutex4init, symObjAddr: 0x10CB8, symBinAddr: 0x10002F9FC, symSize: 0x160 }
  - { offset: 0xA6BF7, size: 0x8, addend: 0x0, symName: __RNvNvMNtNtNtNtNtCs6Pvmk8MDi9B_3std3sys3pal4unix4sync5mutexNtB4_5Mutex4lock4fail, symObjAddr: 0x10A34, symBinAddr: 0x10002F778, symSize: 0x60 }
  - { offset: 0xA6C97, size: 0x8, addend: 0x0, symName: __RNvNtNtNtCs6Pvmk8MDi9B_3std3sys3pal4unix14abort_internal, symObjAddr: 0x31E90, symBinAddr: 0x100050BD4, symSize: 0xC }
  - { offset: 0xA6CD2, size: 0x8, addend: 0x0, symName: __RNvMNtNtNtNtCs6Pvmk8MDi9B_3std3sys3pal4unix4timeNtB2_8Timespec12sub_timespec, symObjAddr: 0x3322C, symBinAddr: 0x100051F70, symSize: 0xE4 }
  - { offset: 0xA6DDD, size: 0x8, addend: 0x0, symName: __RNvMNtNtNtNtCs6Pvmk8MDi9B_3std3sys3pal4unix4timeNtB2_8Timespec3now, symObjAddr: 0x33310, symBinAddr: 0x100052054, symSize: 0x118 }
  - { offset: 0xA6F45, size: 0x8, addend: 0x0, symName: __RNvNvMs0_NtNtNtCs6Pvmk8MDi9B_3std3sys6thread4unixNtB7_6Thread3new12thread_start, symObjAddr: 0x33764, symBinAddr: 0x1000524A8, symSize: 0x1C8 }
  - { offset: 0xA768B, size: 0x8, addend: 0x0, symName: __RNvMs0_NtNtNtCs6Pvmk8MDi9B_3std3sys6thread4unixNtB5_6Thread3new, symObjAddr: 0x3357C, symBinAddr: 0x1000522C0, symSize: 0x1AC }
  - { offset: 0xA79A4, size: 0x8, addend: 0x0, symName: __RNvMsi_NtNtNtCs6Pvmk8MDi9B_3std3sys2fs4unixNtB5_4File6open_c, symObjAddr: 0x2F6DC, symBinAddr: 0x10004E420, symSize: 0x1DC }
  - { offset: 0xA7B26, size: 0x8, addend: 0x0, symName: __RNvXsc_NtNtNtCs6Pvmk8MDi9B_3std3sys2fs4unixNtB5_9DirStreamNtNtNtCs4jSjb1l5x4F_4core3ops4drop4Drop4drop, symObjAddr: 0x26B48, symBinAddr: 0x10004588C, symSize: 0xB0 }
  - { offset: 0xA7BE2, size: 0x8, addend: 0x0, symName: __RNvNtNtCs6Pvmk8MDi9B_3std3sys2fs8read_dir, symObjAddr: 0x184EC, symBinAddr: 0x100037230, symSize: 0x250 }
  - { offset: 0xA8066, size: 0x8, addend: 0x0, symName: __RNvXs3_NtNtNtCs6Pvmk8MDi9B_3std3sys5stdio4unixNtB5_6StderrNtNtBb_2io5Write5write, symObjAddr: 0x31354, symBinAddr: 0x100050098, symSize: 0x54 }
  - { offset: 0xA8143, size: 0x8, addend: 0x0, symName: __RNvXs3_NtNtNtCs6Pvmk8MDi9B_3std3sys5stdio4unixNtB5_6StderrNtNtBb_2io5Write14write_vectored, symObjAddr: 0x313A8, symBinAddr: 0x1000500EC, symSize: 0x54 }
  - { offset: 0xA8220, size: 0x8, addend: 0x0, symName: __RNvXs3_NtNtNtCs6Pvmk8MDi9B_3std3sys5stdio4unixNtB5_6StderrNtNtBb_2io5Write17is_write_vectored, symObjAddr: 0x313FC, symBinAddr: 0x100050140, symSize: 0x8 }
  - { offset: 0xA823A, size: 0x8, addend: 0x0, symName: __RNvXs3_NtNtNtCs6Pvmk8MDi9B_3std3sys5stdio4unixNtB5_6StderrNtNtBb_2io5Write5flush, symObjAddr: 0x31404, symBinAddr: 0x100050148, symSize: 0x8 }
  - { offset: 0xA829C, size: 0x8, addend: 0x0, symName: __RNvMNtNtNtNtNtCs6Pvmk8MDi9B_3std3sys3net10connection6socket4unixNtB2_6Socket3new, symObjAddr: 0x33428, symBinAddr: 0x10005216C, symSize: 0x100 }
  - { offset: 0xA8528, size: 0x8, addend: 0x0, symName: __RNCNvNtNtNtNtCs6Pvmk8MDi9B_3std3sys3net10connection6socket11lookup_host0Bb_, symObjAddr: 0x3456C, symBinAddr: 0x1000532B0, symSize: 0x150 }
  - { offset: 0xA8B67, size: 0x8, addend: 0x0, symName: __RNvXs_NtNtNtNtCs6Pvmk8MDi9B_3std3sys3net10connection6socketNtB4_10LookupHostNtNtNtNtCs4jSjb1l5x4F_4core4iter6traits8iterator8Iterator4next, symObjAddr: 0x346BC, symBinAddr: 0x100053400, symSize: 0x150 }
  - { offset: 0xA8CFA, size: 0x8, addend: 0x0, symName: __RNCNvNtCs6Pvmk8MDi9B_3std5alloc8rust_oom0B5_, symObjAddr: 0x32C50, symBinAddr: 0x100051994, symSize: 0x10 }
  - { offset: 0xA8D16, size: 0x8, addend: 0x0, symName: __RNvNtCs6Pvmk8MDi9B_3std5alloc24default_alloc_error_hook, symObjAddr: 0x32C60, symBinAddr: 0x1000519A4, symSize: 0xFC }
  - { offset: 0xA8D91, size: 0x8, addend: 0x0, symName: __RNvCs9wFQrvczXsK_7___rustc26___rust_alloc_error_handler, symObjAddr: 0x33208, symBinAddr: 0x100051F4C, symSize: 0x18 }
  - { offset: 0xA8DAD, size: 0x8, addend: 0x0, symName: __RNvNtCs6Pvmk8MDi9B_3std5alloc8rust_oom, symObjAddr: 0x33220, symBinAddr: 0x100051F64, symSize: 0xC }
  - { offset: 0xA8DCF, size: 0x8, addend: 0x0, symName: __RNSINvNtCs6Pvmk8MDi9B_3std9panicking11begin_panicReE5reifyB6_, symObjAddr: 0xF680, symBinAddr: 0x10002E3C4, symSize: 0xC }
  - { offset: 0xA8DEA, size: 0x8, addend: 0x0, symName: __RINvNtCs6Pvmk8MDi9B_3std9panicking11begin_panicReEB4_, symObjAddr: 0xF68C, symBinAddr: 0x10002E3D0, symSize: 0x24 }
  - { offset: 0xA8E0C, size: 0x8, addend: 0x0, symName: __RNCINvNtCs6Pvmk8MDi9B_3std9panicking11begin_panicReE0B6_, symObjAddr: 0xF6BC, symBinAddr: 0x10002E400, symSize: 0x30 }
  - { offset: 0xA8E2D, size: 0x8, addend: 0x0, symName: __RNvXs_NvNtCs6Pvmk8MDi9B_3std9panicking11begin_panicINtB4_7PayloadReENtNtCs4jSjb1l5x4F_4core3fmt7Display3fmtB8_, symObjAddr: 0x32A1C, symBinAddr: 0x100051760, symSize: 0x28 }
  - { offset: 0xA8E7C, size: 0x8, addend: 0x0, symName: __RNvXNvNtCs6Pvmk8MDi9B_3std9panicking11begin_panicINtB2_7PayloadReENtNtCs4jSjb1l5x4F_4core5panic12PanicPayload8take_boxB6_, symObjAddr: 0x32A44, symBinAddr: 0x100051788, symSize: 0x4C }
  - { offset: 0xA8F69, size: 0x8, addend: 0x0, symName: __RNvXNvNtCs6Pvmk8MDi9B_3std9panicking11begin_panicINtB2_7PayloadReENtNtCs4jSjb1l5x4F_4core5panic12PanicPayload3getB6_, symObjAddr: 0x32A90, symBinAddr: 0x1000517D4, symSize: 0x20 }
  - { offset: 0xA9011, size: 0x8, addend: 0x0, symName: __RNvNtNtCs6Pvmk8MDi9B_3std9panicking11panic_count17is_zero_slow_path, symObjAddr: 0x106BC, symBinAddr: 0x10002F400, symSize: 0x2C }
  - { offset: 0xA9115, size: 0x8, addend: 0x0, symName: __RNvNtCs6Pvmk8MDi9B_3std9panicking15panic_with_hook, symObjAddr: 0xFA30, symBinAddr: 0x10002E774, symSize: 0x5E8 }
  - { offset: 0xA9D05, size: 0x8, addend: 0x0, symName: __RNvCs9wFQrvczXsK_7___rustc10rust_panic, symObjAddr: 0x10514, symBinAddr: 0x10002F258, symSize: 0xC }
  - { offset: 0xA9D65, size: 0x8, addend: 0x0, symName: __RNCNvNtCs6Pvmk8MDi9B_3std9panicking13panic_handler0B5_, symObjAddr: 0x32D68, symBinAddr: 0x100051AAC, symSize: 0x94 }
  - { offset: 0xA9F1B, size: 0x8, addend: 0x0, symName: __RNvXs0_NvNtCs6Pvmk8MDi9B_3std9panicking13panic_handlerNtB5_19FormatStringPayloadNtNtCs4jSjb1l5x4F_4core3fmt7Display3fmt, symObjAddr: 0x32DFC, symBinAddr: 0x100051B40, symSize: 0x34 }
  - { offset: 0xAA068, size: 0x8, addend: 0x0, symName: __RNvXs_NvNtCs6Pvmk8MDi9B_3std9panicking13panic_handlerNtB4_19FormatStringPayloadNtNtCs4jSjb1l5x4F_4core5panic12PanicPayload8take_box, symObjAddr: 0x32E30, symBinAddr: 0x100051B74, symSize: 0xE4 }
  - { offset: 0xAA319, size: 0x8, addend: 0x0, symName: __RNvXs_NvNtCs6Pvmk8MDi9B_3std9panicking13panic_handlerNtB4_19FormatStringPayloadNtNtCs4jSjb1l5x4F_4core5panic12PanicPayload3get, symObjAddr: 0x32F14, symBinAddr: 0x100051C58, symSize: 0x98 }
  - { offset: 0xAA4D0, size: 0x8, addend: 0x0, symName: __RNvXs2_NvNtCs6Pvmk8MDi9B_3std9panicking13panic_handlerNtB5_16StaticStrPayloadNtNtCs4jSjb1l5x4F_4core3fmt7Display3fmt, symObjAddr: 0x33170, symBinAddr: 0x100051EB4, symSize: 0x14 }
  - { offset: 0xAA509, size: 0x8, addend: 0x0, symName: __RNvXs1_NvNtCs6Pvmk8MDi9B_3std9panicking13panic_handlerNtB5_16StaticStrPayloadNtNtCs4jSjb1l5x4F_4core5panic12PanicPayload8take_box, symObjAddr: 0x33184, symBinAddr: 0x100051EC8, symSize: 0x40 }
  - { offset: 0xAA5C9, size: 0x8, addend: 0x0, symName: __RNvXs1_NvNtCs6Pvmk8MDi9B_3std9panicking13panic_handlerNtB5_16StaticStrPayloadNtNtCs4jSjb1l5x4F_4core5panic12PanicPayload3get, symObjAddr: 0x331C4, symBinAddr: 0x100051F08, symSize: 0xC }
  - { offset: 0xAA5E4, size: 0x8, addend: 0x0, symName: __RNvXs1_NvNtCs6Pvmk8MDi9B_3std9panicking13panic_handlerNtB5_16StaticStrPayloadNtNtCs4jSjb1l5x4F_4core5panic12PanicPayload6as_str, symObjAddr: 0x331D0, symBinAddr: 0x100051F14, symSize: 0xC }
  - { offset: 0xAA601, size: 0x8, addend: 0x0, symName: __RNvCs9wFQrvczXsK_7___rustc17rust_begin_unwind, symObjAddr: 0x331E8, symBinAddr: 0x100051F2C, symSize: 0x20 }
  - { offset: 0xAA6FD, size: 0x8, addend: 0x0, symName: __RNvNtNtCs6Pvmk8MDi9B_3std6thread5local18panic_access_error, symObjAddr: 0x33C70, symBinAddr: 0x1000529B4, symSize: 0x34 }
  - { offset: 0xAA71F, size: 0x8, addend: 0x0, symName: __RNvXs_NtNtCs6Pvmk8MDi9B_3std6thread5localNtB4_11AccessErrorNtNtCs4jSjb1l5x4F_4core3fmt5Debug3fmt, symObjAddr: 0x34104, symBinAddr: 0x100052E48, symSize: 0x18 }
  - { offset: 0xAA73E, size: 0x8, addend: 0x0, symName: __RNvXs_NtNtCs6Pvmk8MDi9B_3std6thread5localNtB4_11AccessErrorNtNtCs4jSjb1l5x4F_4core3fmt5Debug3fmt, symObjAddr: 0x34104, symBinAddr: 0x100052E48, symSize: 0x18 }
  - { offset: 0xAA754, size: 0x8, addend: 0x0, symName: __RNvXs_NtNtCs6Pvmk8MDi9B_3std6thread5localNtB4_11AccessErrorNtNtCs4jSjb1l5x4F_4core3fmt5Debug3fmt, symObjAddr: 0x34104, symBinAddr: 0x100052E48, symSize: 0x18 }
  - { offset: 0xAA76A, size: 0x8, addend: 0x0, symName: __RNvXs_NtNtCs6Pvmk8MDi9B_3std6thread5localNtB4_11AccessErrorNtNtCs4jSjb1l5x4F_4core3fmt5Debug3fmt, symObjAddr: 0x34104, symBinAddr: 0x100052E48, symSize: 0x18 }
  - { offset: 0xAA7CF, size: 0x8, addend: 0x0, symName: __RNvMs_NtNtCs6Pvmk8MDi9B_3std6thread6threadNtB4_6Thread3new, symObjAddr: 0x321B8, symBinAddr: 0x100050EFC, symSize: 0x21C }
  - { offset: 0xAAE41, size: 0x8, addend: 0x0, symName: __RNCINvNtNtCs6Pvmk8MDi9B_3std6thread7current17with_current_nameNCNCNvNtB8_9panicking12default_hook00uE0B8_, symObjAddr: 0x11BC4, symBinAddr: 0x100030908, symSize: 0x2A0 }
  - { offset: 0xAB1BF, size: 0x8, addend: 0x0, symName: __RNvNtNtCs6Pvmk8MDi9B_3std6thread7current12init_current, symObjAddr: 0x32060, symBinAddr: 0x100050DA4, symSize: 0x158 }
  - { offset: 0xAB4D8, size: 0x8, addend: 0x0, symName: __RNvNvMNtNtCs6Pvmk8MDi9B_3std6thread2idNtB4_8ThreadId3new9exhausted, symObjAddr: 0x31138, symBinAddr: 0x10004FE7C, symSize: 0x20 }
  - { offset: 0xAB558, size: 0x8, addend: 0x0, symName: __RNvMs_NtNtCs6Pvmk8MDi9B_3std6thread9spawnhookNtB4_15ChildSpawnHooks3run, symObjAddr: 0x339C4, symBinAddr: 0x100052708, symSize: 0x220 }
  - { offset: 0xABC38, size: 0x8, addend: 0x0, symName: __RNvXNtNtCs6Pvmk8MDi9B_3std6thread9spawnhookNtB2_10SpawnHooksNtNtNtCs4jSjb1l5x4F_4core3ops4drop4Drop4drop, symObjAddr: 0x33CA4, symBinAddr: 0x1000529E8, symSize: 0xFC }
  - { offset: 0xAC0D4, size: 0x8, addend: 0x0, symName: __RNvNtNtCs6Pvmk8MDi9B_3std6thread9spawnhook15run_spawn_hooks, symObjAddr: 0x34248, symBinAddr: 0x100052F8C, symSize: 0x29C }
  - { offset: 0xAC891, size: 0x8, addend: 0x0, symName: __RNvNtCs6Pvmk8MDi9B_3std5panic19get_backtrace_style, symObjAddr: 0x10520, symBinAddr: 0x10002F264, symSize: 0x19C }
  - { offset: 0xAC8B0, size: 0x8, addend: 0x0, symName: __RNvNtCs6Pvmk8MDi9B_3std5panic19get_backtrace_style, symObjAddr: 0x10520, symBinAddr: 0x10002F264, symSize: 0x19C }
  - { offset: 0xAC8C6, size: 0x8, addend: 0x0, symName: __RNvNtCs6Pvmk8MDi9B_3std5panic19get_backtrace_style, symObjAddr: 0x10520, symBinAddr: 0x10002F264, symSize: 0x19C }
  - { offset: 0xACEFE, size: 0x8, addend: 0x0, symName: __RNvYNtNtNtNtCs6Pvmk8MDi9B_3std3sys5stdio4unix6StderrNtNtBa_2io5Write9write_fmtBa_, symObjAddr: 0x1045C, symBinAddr: 0x10002F1A0, symSize: 0x9C }
  - { offset: 0xACF62, size: 0x8, addend: 0x0, symName: __RNvYNtNtNtNtCs6Pvmk8MDi9B_3std3sys5stdio4unix6StderrNtNtBa_2io5Write9write_allBa_, symObjAddr: 0x3140C, symBinAddr: 0x100050150, symSize: 0xE0 }
  - { offset: 0xAD05C, size: 0x8, addend: 0x0, symName: __RNvYNtNtNtNtCs6Pvmk8MDi9B_3std3sys5stdio4unix6StderrNtNtBa_2io5Write18write_all_vectoredBa_, symObjAddr: 0x314EC, symBinAddr: 0x100050230, symSize: 0x1B4 }
  - { offset: 0xAD3CD, size: 0x8, addend: 0x0, symName: __RINvMs3_NtNtCs6Pvmk8MDi9B_3std2io5errorNtB6_5Error3newReEBa_, symObjAddr: 0x2F96C, symBinAddr: 0x10004E6B0, symSize: 0xE8 }
  - { offset: 0xAD80B, size: 0x8, addend: 0x0, symName: __RNvXs5_NtNtCs6Pvmk8MDi9B_3std2io5errorNtB5_5ErrorNtNtCs4jSjb1l5x4F_4core3fmt7Display3fmt, symObjAddr: 0x10A94, symBinAddr: 0x10002F7D8, symSize: 0x214 }
  - { offset: 0xADCCC, size: 0x8, addend: 0x0, symName: __RNvXNtNtCs6Pvmk8MDi9B_3std2io5errorNtB2_5ErrorNtNtCs4jSjb1l5x4F_4core3fmt5Debug3fmt, symObjAddr: 0x10F40, symBinAddr: 0x10002FC84, symSize: 0xB18 }
  - { offset: 0xAF0A7, size: 0x8, addend: 0x0, symName: __RNvXNvNtCs6Pvmk8MDi9B_3std2io17default_write_fmtINtB2_7AdapterINtNtNtCs4jSjb1l5x4F_4core2io6cursor6CursorQShEENtNtB15_3fmt5Write9write_strB6_, symObjAddr: 0x31168, symBinAddr: 0x10004FEAC, symSize: 0xA0 }
  - { offset: 0xAF1E1, size: 0x8, addend: 0x0, symName: __RNvXNvNtCs6Pvmk8MDi9B_3std2io17default_write_fmtINtB2_7AdapterNtNtNtNtB6_3sys5stdio4unix6StderrENtNtCs4jSjb1l5x4F_4core3fmt5Write9write_strB6_, symObjAddr: 0x31E9C, symBinAddr: 0x100050BE0, symSize: 0x100 }
  - { offset: 0xAF348, size: 0x8, addend: 0x0, symName: __RNvNtCs6Pvmk8MDi9B_3std7process5abort, symObjAddr: 0x10508, symBinAddr: 0x10002F24C, symSize: 0xC }
  - { offset: 0xAF394, size: 0x8, addend: 0x0, symName: __RNvNtCs6Pvmk8MDi9B_3std3env7__var_os, symObjAddr: 0x3414C, symBinAddr: 0x100052E90, symSize: 0xFC }
  - { offset: 0xAF68B, size: 0x8, addend: 0x0, symName: __RNvMs_NtNtCs6Pvmk8MDi9B_3std12backtrace_rs5printNtB4_17BacktraceFrameFmt21print_raw_with_column, symObjAddr: 0x14804, symBinAddr: 0x100033548, symSize: 0x384 }
  - { offset: 0xAF977, size: 0x8, addend: 0x0, symName: __RNvNvNtNtNtCs6Pvmk8MDi9B_3std12backtrace_rs9backtrace9libunwind5trace8trace_fn, symObjAddr: 0x12180, symBinAddr: 0x100030EC4, symSize: 0x44 }
  - { offset: 0xAFB3A, size: 0x8, addend: 0x0, symName: __RNvMs_NtNtNtNtCs6Pvmk8MDi9B_3std12backtrace_rs9symbolize5gimli5machoNtB4_6Object5parse, symObjAddr: 0x15A0C, symBinAddr: 0x100034750, symSize: 0xBE4 }
  - { offset: 0xB1D50, size: 0x8, addend: 0x0, symName: __RNvMs_NtNtNtNtCs6Pvmk8MDi9B_3std12backtrace_rs9symbolize5gimli5machoNtB4_6Object7section, symObjAddr: 0x26CF0, symBinAddr: 0x100045A34, symSize: 0x150 }
  - { offset: 0xB2179, size: 0x8, addend: 0x0, symName: __RNvNtNtNtNtCs6Pvmk8MDi9B_3std12backtrace_rs9symbolize5gimli5macho11find_header, symObjAddr: 0x151EC, symBinAddr: 0x100033F30, symSize: 0x1DC }
  - { offset: 0xB2197, size: 0x8, addend: 0x0, symName: __RNvNtNtNtNtCs6Pvmk8MDi9B_3std12backtrace_rs9symbolize5gimli5macho11find_header, symObjAddr: 0x151EC, symBinAddr: 0x100033F30, symSize: 0x1DC }
  - { offset: 0xB21AC, size: 0x8, addend: 0x0, symName: __RNvNtNtNtNtCs6Pvmk8MDi9B_3std12backtrace_rs9symbolize5gimli5macho11find_header, symObjAddr: 0x151EC, symBinAddr: 0x100033F30, symSize: 0x1DC }
  - { offset: 0xB21C1, size: 0x8, addend: 0x0, symName: __RNvNtNtNtNtCs6Pvmk8MDi9B_3std12backtrace_rs9symbolize5gimli5macho11find_header, symObjAddr: 0x151EC, symBinAddr: 0x100033F30, symSize: 0x1DC }
  - { offset: 0xB21D6, size: 0x8, addend: 0x0, symName: __RNvNtNtNtNtCs6Pvmk8MDi9B_3std12backtrace_rs9symbolize5gimli5macho11find_header, symObjAddr: 0x151EC, symBinAddr: 0x100033F30, symSize: 0x1DC }
  - { offset: 0xB21EC, size: 0x8, addend: 0x0, symName: __RNvNtNtNtNtCs6Pvmk8MDi9B_3std12backtrace_rs9symbolize5gimli5macho11find_header, symObjAddr: 0x151EC, symBinAddr: 0x100033F30, symSize: 0x1DC }
  - { offset: 0xB2202, size: 0x8, addend: 0x0, symName: __RNvNtNtNtNtCs6Pvmk8MDi9B_3std12backtrace_rs9symbolize5gimli5macho11find_header, symObjAddr: 0x151EC, symBinAddr: 0x100033F30, symSize: 0x1DC }
  - { offset: 0xB298C, size: 0x8, addend: 0x0, symName: __RNvNtNtNtCs6Pvmk8MDi9B_3std12backtrace_rs9symbolize5gimli4mmap, symObjAddr: 0x14EAC, symBinAddr: 0x100033BF0, symSize: 0x2A0 }
  - { offset: 0xB2EE1, size: 0x8, addend: 0x0, symName: __RNvMs_NtNtNtCs6Pvmk8MDi9B_3std12backtrace_rs9symbolize5gimliNtB4_7Context3new, symObjAddr: 0x165F0, symBinAddr: 0x100035334, symSize: 0x1EFC }
  - { offset: 0xB7B15, size: 0x8, addend: 0x0, symName: __RNvMs_NtNtNtCs6Pvmk8MDi9B_3std12backtrace_rs9symbolize5gimliNtB4_7Context11find_frames, symObjAddr: 0x18C54, symBinAddr: 0x100037998, symSize: 0x3B0 }
  - { offset: 0xB81F9, size: 0x8, addend: 0x0, symName: __RNvXs2_NtNtCs6Pvmk8MDi9B_3std12backtrace_rs9symbolizeNtB5_10SymbolNameNtNtCs4jSjb1l5x4F_4core3fmt7Display3fmt, symObjAddr: 0x14C40, symBinAddr: 0x100033984, symSize: 0x204 }
  - { offset: 0xB8301, size: 0x8, addend: 0x0, symName: __RNvMs_NtNtCs6Pvmk8MDi9B_3std12backtrace_rs9symbolizeNtB4_6Symbol4name, symObjAddr: 0x2FD28, symBinAddr: 0x10004EA6C, symSize: 0xD4 }
  - { offset: 0xB84BD, size: 0x8, addend: 0x0, symName: __RNvMs16_NtCs6Pvmk8MDi9B_3std4pathNtB6_4Path5__join, symObjAddr: 0x18964, symBinAddr: 0x1000376A8, symSize: 0x16C }
  - { offset: 0xB8B03, size: 0x8, addend: 0x0, symName: __RNvMs8_NtCs6Pvmk8MDi9B_3std4pathNtB5_10Components7as_path, symObjAddr: 0x157EC, symBinAddr: 0x100034530, symSize: 0x220 }
  - { offset: 0xB8C8D, size: 0x8, addend: 0x0, symName: __RNvMs8_NtCs6Pvmk8MDi9B_3std4pathNtB5_10Components25parse_next_component_back, symObjAddr: 0x2F588, symBinAddr: 0x10004E2CC, symSize: 0x154 }
  - { offset: 0xB8E1F, size: 0x8, addend: 0x0, symName: __RNvXsj_NtCs6Pvmk8MDi9B_3std4pathNtB5_10ComponentsNtNtNtNtCs4jSjb1l5x4F_4core4iter6traits12double_ended19DoubleEndedIterator9next_back, symObjAddr: 0x153C8, symBinAddr: 0x10003410C, symSize: 0x424 }
  - { offset: 0xB9080, size: 0x8, addend: 0x0, symName: __RNvXsi_NtCs6Pvmk8MDi9B_3std4pathNtB5_10ComponentsNtNtNtNtCs4jSjb1l5x4F_4core4iter6traits8iterator8Iterator4next, symObjAddr: 0x30E10, symBinAddr: 0x10004FB54, symSize: 0x328 }
  - { offset: 0xB9257, size: 0x8, addend: 0x0, symName: __RNvXsz_NtCs6Pvmk8MDi9B_3std2fsNtB5_7ReadDirNtNtNtNtCs4jSjb1l5x4F_4core4iter6traits8iterator8Iterator4next, symObjAddr: 0x1873C, symBinAddr: 0x100037480, symSize: 0x178 }
  - { offset: 0xB95AF, size: 0x8, addend: 0x0, symName: __RNvCs9wFQrvczXsK_7___rustc12___rust_abort, symObjAddr: 0x331DC, symBinAddr: 0x100051F20, symSize: 0xC }
  - { offset: 0xB95DC, size: 0x8, addend: 0x0, symName: __RNvMNtNtCs6Pvmk8MDi9B_3std3net3udpNtB2_9UdpSocket13set_broadcast, symObjAddr: 0x33528, symBinAddr: 0x10005226C, symSize: 0x54 }
  - { offset: 0xBAA11, size: 0x8, addend: 0x0, symName: __RINvNtCs4jSjb1l5x4F_4core3ptr9drop_glueINtNtB4_6result6ResultuNtNtNtCs6Pvmk8MDi9B_3std2io5error5ErrorEEB14_, symObjAddr: 0x104F8, symBinAddr: 0x10002F23C, symSize: 0x10 }
  - { offset: 0xBAACE, size: 0x8, addend: 0x0, symName: __RINvNtCs4jSjb1l5x4F_4core3ptr9drop_glueNtNtNtCs6Pvmk8MDi9B_3std2io5error5ErrorEBH_, symObjAddr: 0x10774, symBinAddr: 0x10002F4B8, symSize: 0x9C }
  - { offset: 0xBAEC8, size: 0x8, addend: 0x0, symName: __RINvNtCs4jSjb1l5x4F_4core3ptr9drop_glueNtNtNtNtNtNtCs6Pvmk8MDi9B_3std3sys3pal4unix4sync5mutex9AttrGuardEBN_, symObjAddr: 0x10E18, symBinAddr: 0x10002FB5C, symSize: 0x3C }
  - { offset: 0xBAEEB, size: 0x8, addend: 0x0, symName: __RINvNtCs4jSjb1l5x4F_4core3ptr9drop_glueNtNtCscanHOTX2pz9_5alloc6string6StringECs6Pvmk8MDi9B_3std, symObjAddr: 0x11A58, symBinAddr: 0x10003079C, symSize: 0x14 }
  - { offset: 0xBAF03, size: 0x8, addend: 0x0, symName: __RINvNtCs4jSjb1l5x4F_4core3ptr9drop_glueNtNtCscanHOTX2pz9_5alloc6string6StringECs6Pvmk8MDi9B_3std, symObjAddr: 0x11A58, symBinAddr: 0x10003079C, symSize: 0x14 }
  - { offset: 0xBAFFD, size: 0x8, addend: 0x0, symName: __RINvNtCs4jSjb1l5x4F_4core3ptr9drop_glueNtNtNtCs6Pvmk8MDi9B_3std3sys9backtrace13BacktraceLockEBH_, symObjAddr: 0x11E64, symBinAddr: 0x100030BA8, symSize: 0x54 }
  - { offset: 0xBB01C, size: 0x8, addend: 0x0, symName: __RINvNtCs4jSjb1l5x4F_4core3ptr9drop_glueNtNtNtCs6Pvmk8MDi9B_3std3sys9backtrace13BacktraceLockEBH_, symObjAddr: 0x11E64, symBinAddr: 0x100030BA8, symSize: 0x54 }
  - { offset: 0xBB032, size: 0x8, addend: 0x0, symName: __RINvNtCs4jSjb1l5x4F_4core3ptr9drop_glueNtNtNtCs6Pvmk8MDi9B_3std3sys9backtrace13BacktraceLockEBH_, symObjAddr: 0x11E64, symBinAddr: 0x100030BA8, symSize: 0x54 }
  - { offset: 0xBB158, size: 0x8, addend: 0x0, symName: __RINvNtCs4jSjb1l5x4F_4core3ptr9drop_glueNtNtNtNtCs6Pvmk8MDi9B_3std12backtrace_rs9backtrace9libunwind4BombEBJ_, symObjAddr: 0x121C4, symBinAddr: 0x100030F08, symSize: 0x20 }
  - { offset: 0xBB49B, size: 0x8, addend: 0x0, symName: __RINvNtCs4jSjb1l5x4F_4core3ptr9drop_glueNtNtNtNtNtCs6Pvmk8MDi9B_3std12backtrace_rs9symbolize5gimli5stash5StashEBL_, symObjAddr: 0x1514C, symBinAddr: 0x100033E90, symSize: 0xA0 }
  - { offset: 0xBBC64, size: 0x8, addend: 0x0, symName: __RINvNtCs4jSjb1l5x4F_4core3ptr9drop_glueNtNtNtNtCs6Pvmk8MDi9B_3std12backtrace_rs9symbolize5gimli7ContextEBJ_, symObjAddr: 0x18AD0, symBinAddr: 0x100037814, symSize: 0x184 }
  - { offset: 0xBC36D, size: 0x8, addend: 0x0, symName: __RINvNtCs4jSjb1l5x4F_4core3ptr9drop_glueINtNtNtCsiM5UA4RzYIa_5gimli4read4line8LineRowsINtNtBG_12endian_slice11EndianSliceNtNtBI_9endianity12LittleEndianEINtBE_21IncompleteLineProgramB1l_jEjEECs6Pvmk8MDi9B_3std, symObjAddr: 0x1B984, symBinAddr: 0x10003A6C8, symSize: 0x64 }
  - { offset: 0xBC714, size: 0x8, addend: 0x0, symName: __RINvNtCs4jSjb1l5x4F_4core3ptr9drop_glueINtNtCscanHOTX2pz9_5alloc3vec3VecNtNtCslD6GJiPj7gM_9addr2line4line12LineSequenceEECs6Pvmk8MDi9B_3std, symObjAddr: 0x1B9E8, symBinAddr: 0x10003A72C, symSize: 0x70 }
  - { offset: 0xBC904, size: 0x8, addend: 0x0, symName: __RINvNtCs4jSjb1l5x4F_4core3ptr9drop_glueINtNtCscanHOTX2pz9_5alloc5boxed3BoxSNtNtBG_6string6StringEECs6Pvmk8MDi9B_3std, symObjAddr: 0x1BA58, symBinAddr: 0x10003A79C, symSize: 0x5C }
  - { offset: 0xBC91C, size: 0x8, addend: 0x0, symName: __RINvNtCs4jSjb1l5x4F_4core3ptr9drop_glueINtNtCscanHOTX2pz9_5alloc5boxed3BoxSNtNtBG_6string6StringEECs6Pvmk8MDi9B_3std, symObjAddr: 0x1BA58, symBinAddr: 0x10003A79C, symSize: 0x5C }
  - { offset: 0xBCAE6, size: 0x8, addend: 0x0, symName: __RINvNtCs4jSjb1l5x4F_4core3ptr9drop_glueINtNtCscanHOTX2pz9_5alloc3vec3VecNtNtBG_6string6StringEECs6Pvmk8MDi9B_3std, symObjAddr: 0x1BC6C, symBinAddr: 0x10003A9B0, symSize: 0x70 }
  - { offset: 0xBCD56, size: 0x8, addend: 0x0, symName: __RINvNtCs4jSjb1l5x4F_4core3ptr9drop_glueINtNtB4_6result6ResultRIBC_NtNtCslD6GJiPj7gM_9addr2line4line5LinesNtNtCsiM5UA4RzYIa_5gimli4read5ErrorETBX_BY_EEECs6Pvmk8MDi9B_3std, symObjAddr: 0x1C144, symBinAddr: 0x10003AE88, symSize: 0xB8 }
  - { offset: 0xBD0BB, size: 0x8, addend: 0x0, symName: __RINvNtCs4jSjb1l5x4F_4core3ptr9drop_glueINtNtB4_6result6ResultNtNtCslD6GJiPj7gM_9addr2line4line5LinesNtNtCsiM5UA4RzYIa_5gimli4read5ErrorEECs6Pvmk8MDi9B_3std, symObjAddr: 0x1C1FC, symBinAddr: 0x10003AF40, symSize: 0xAC }
  - { offset: 0xBD6C5, size: 0x8, addend: 0x0, symName: __RINvNtCs4jSjb1l5x4F_4core3ptr9drop_glueINtNtB4_6result6ResultRIBC_INtNtCslD6GJiPj7gM_9addr2line8function8FunctionINtNtNtCsiM5UA4RzYIa_5gimli4read12endian_slice11EndianSliceNtNtB1U_9endianity12LittleEndianEENtB1S_5ErrorETBX_BY_EEECs6Pvmk8MDi9B_3std, symObjAddr: 0x21ED0, symBinAddr: 0x100040C14, symSize: 0x50 }
  - { offset: 0xBD952, size: 0x8, addend: 0x0, symName: __RINvNtCs4jSjb1l5x4F_4core3ptr9drop_glueINtNtCslD6GJiPj7gM_9addr2line8function12LazyFunctionINtNtNtCsiM5UA4RzYIa_5gimli4read12endian_slice11EndianSliceNtNtB1y_9endianity12LittleEndianEEECs6Pvmk8MDi9B_3std, symObjAddr: 0x24844, symBinAddr: 0x100043588, symSize: 0x50 }
  - { offset: 0xBD96A, size: 0x8, addend: 0x0, symName: __RINvNtCs4jSjb1l5x4F_4core3ptr9drop_glueINtNtCslD6GJiPj7gM_9addr2line8function12LazyFunctionINtNtNtCsiM5UA4RzYIa_5gimli4read12endian_slice11EndianSliceNtNtB1y_9endianity12LittleEndianEEECs6Pvmk8MDi9B_3std, symObjAddr: 0x24844, symBinAddr: 0x100043588, symSize: 0x50 }
  - { offset: 0xBD980, size: 0x8, addend: 0x0, symName: __RINvNtCs4jSjb1l5x4F_4core3ptr9drop_glueINtNtCslD6GJiPj7gM_9addr2line8function12LazyFunctionINtNtNtCsiM5UA4RzYIa_5gimli4read12endian_slice11EndianSliceNtNtB1y_9endianity12LittleEndianEEECs6Pvmk8MDi9B_3std, symObjAddr: 0x24844, symBinAddr: 0x100043588, symSize: 0x50 }
  - { offset: 0xBD996, size: 0x8, addend: 0x0, symName: __RINvNtCs4jSjb1l5x4F_4core3ptr9drop_glueINtNtCslD6GJiPj7gM_9addr2line8function12LazyFunctionINtNtNtCsiM5UA4RzYIa_5gimli4read12endian_slice11EndianSliceNtNtB1y_9endianity12LittleEndianEEECs6Pvmk8MDi9B_3std, symObjAddr: 0x24844, symBinAddr: 0x100043588, symSize: 0x50 }
  - { offset: 0xBDB34, size: 0x8, addend: 0x0, symName: __RINvNtCs4jSjb1l5x4F_4core3ptr9drop_glueINtNtCscanHOTX2pz9_5alloc3vec3VecINtNtCslD6GJiPj7gM_9addr2line8function12LazyFunctionINtNtNtCsiM5UA4RzYIa_5gimli4read12endian_slice11EndianSliceNtNtB25_9endianity12LittleEndianEEEECs6Pvmk8MDi9B_3std, symObjAddr: 0x24894, symBinAddr: 0x1000435D8, symSize: 0x8C }
  - { offset: 0xBDE34, size: 0x8, addend: 0x0, symName: __RINvNtCs4jSjb1l5x4F_4core3ptr9drop_glueINtNtCscanHOTX2pz9_5alloc5boxed3BoxSINtNtCslD6GJiPj7gM_9addr2line8function12LazyFunctionINtNtNtCsiM5UA4RzYIa_5gimli4read12endian_slice11EndianSliceNtNtB28_9endianity12LittleEndianEEEECs6Pvmk8MDi9B_3std, symObjAddr: 0x24920, symBinAddr: 0x100043664, symSize: 0x78 }
  - { offset: 0xBDE4C, size: 0x8, addend: 0x0, symName: __RINvNtCs4jSjb1l5x4F_4core3ptr9drop_glueINtNtCscanHOTX2pz9_5alloc5boxed3BoxSINtNtCslD6GJiPj7gM_9addr2line8function12LazyFunctionINtNtNtCsiM5UA4RzYIa_5gimli4read12endian_slice11EndianSliceNtNtB28_9endianity12LittleEndianEEEECs6Pvmk8MDi9B_3std, symObjAddr: 0x24920, symBinAddr: 0x100043664, symSize: 0x78 }
  - { offset: 0xBE108, size: 0x8, addend: 0x0, symName: __RINvNtCs4jSjb1l5x4F_4core3ptr9drop_glueINtNtB4_6result6ResultRIBC_INtNtCslD6GJiPj7gM_9addr2line8function9FunctionsINtNtNtCsiM5UA4RzYIa_5gimli4read12endian_slice11EndianSliceNtNtB1V_9endianity12LittleEndianEENtB1T_5ErrorETBX_BY_EEECs6Pvmk8MDi9B_3std, symObjAddr: 0x24998, symBinAddr: 0x1000436DC, symSize: 0xA8 }
  - { offset: 0xBE49E, size: 0x8, addend: 0x0, symName: __RINvNtCs4jSjb1l5x4F_4core3ptr9drop_glueINtNtB4_6result6ResultINtNtCslD6GJiPj7gM_9addr2line8function9FunctionsINtNtNtCsiM5UA4RzYIa_5gimli4read12endian_slice11EndianSliceNtNtB1Q_9endianity12LittleEndianEENtB1O_5ErrorEECs6Pvmk8MDi9B_3std, symObjAddr: 0x24A40, symBinAddr: 0x100043784, symSize: 0x9C }
  - { offset: 0xBE8DF, size: 0x8, addend: 0x0, symName: __RINvNtCs4jSjb1l5x4F_4core3ptr9drop_glueINtNtB4_6result6ResultRIBC_INtNtB4_6option6OptionINtNtCscanHOTX2pz9_5alloc5boxed3BoxINtNtCslD6GJiPj7gM_9addr2line4unit7DwoUnitINtNtNtCsiM5UA4RzYIa_5gimli4read12endian_slice11EndianSliceNtNtB2K_9endianity12LittleEndianEEEENtB2I_5ErrorETBX_BY_EEECs6Pvmk8MDi9B_3std, symObjAddr: 0x25898, symBinAddr: 0x1000445DC, symSize: 0x4 }
  - { offset: 0xBE8FE, size: 0x8, addend: 0x0, symName: __RINvNtCs4jSjb1l5x4F_4core3ptr9drop_glueINtNtB4_6result6ResultRIBC_INtNtB4_6option6OptionINtNtCscanHOTX2pz9_5alloc5boxed3BoxINtNtCslD6GJiPj7gM_9addr2line4unit7DwoUnitINtNtNtCsiM5UA4RzYIa_5gimli4read12endian_slice11EndianSliceNtNtB2K_9endianity12LittleEndianEEEENtB2I_5ErrorETBX_BY_EEECs6Pvmk8MDi9B_3std, symObjAddr: 0x25898, symBinAddr: 0x1000445DC, symSize: 0x4 }
  - { offset: 0xBE93B, size: 0x8, addend: 0x0, symName: __RINvNtCs4jSjb1l5x4F_4core3ptr9drop_glueINtNtB4_6result6ResultINtNtB4_6option6OptionINtNtCscanHOTX2pz9_5alloc5boxed3BoxINtNtCslD6GJiPj7gM_9addr2line4unit7DwoUnitINtNtNtCsiM5UA4RzYIa_5gimli4read12endian_slice11EndianSliceNtNtB2F_9endianity12LittleEndianEEEENtB2D_5ErrorEECs6Pvmk8MDi9B_3std, symObjAddr: 0x2589C, symBinAddr: 0x1000445E0, symSize: 0x110 }
  - { offset: 0xBEF7A, size: 0x8, addend: 0x0, symName: __RINvNtCs4jSjb1l5x4F_4core3ptr9drop_glueINtNtNtCsiM5UA4RzYIa_5gimli4read5dwarf4UnitINtNtBG_12endian_slice11EndianSliceNtNtBI_9endianity12LittleEndianEjEECs6Pvmk8MDi9B_3std, symObjAddr: 0x259AC, symBinAddr: 0x1000446F0, symSize: 0xA8 }
  - { offset: 0xBF3F1, size: 0x8, addend: 0x0, symName: __RINvNtCs4jSjb1l5x4F_4core3ptr9drop_glueINtNtB4_6option6OptionINtNtNtCsiM5UA4RzYIa_5gimli4read4line21IncompleteLineProgramINtNtB12_12endian_slice11EndianSliceNtNtB14_9endianity12LittleEndianEjEEECs6Pvmk8MDi9B_3std, symObjAddr: 0x25AE4, symBinAddr: 0x100044828, symSize: 0x70 }
  - { offset: 0xBF86A, size: 0x8, addend: 0x0, symName: __RINvNtCs4jSjb1l5x4F_4core3ptr9drop_glueNtNtNtCsiM5UA4RzYIa_5gimli4read6abbrev13AbbreviationsECs6Pvmk8MDi9B_3std, symObjAddr: 0x25B54, symBinAddr: 0x100044898, symSize: 0x200 }
  - { offset: 0xC0142, size: 0x8, addend: 0x0, symName: __RINvNtCs4jSjb1l5x4F_4core3ptr9drop_glueNtNtNtCsiM5UA4RzYIa_5gimli4read6abbrev18AbbreviationsCacheECs6Pvmk8MDi9B_3std, symObjAddr: 0x25D54, symBinAddr: 0x100044A98, symSize: 0xBC }
  - { offset: 0xC034F, size: 0x8, addend: 0x0, symName: __RINvNtCs4jSjb1l5x4F_4core3ptr9drop_glueINtNvXsy_NtNtNtCscanHOTX2pz9_5alloc11collections5btree3mapINtBK_8IntoIterpppENtNtNtB4_3ops4drop4Drop4drop9DropGuardyINtNtB4_6result6ResultINtNtBQ_4sync3ArcNtNtNtCsiM5UA4RzYIa_5gimli4read6abbrev13AbbreviationsENtB3a_5ErrorENtNtBQ_5alloc6GlobalEECs6Pvmk8MDi9B_3std, symObjAddr: 0x25F98, symBinAddr: 0x100044CDC, symSize: 0x74 }
  - { offset: 0xC04E5, size: 0x8, addend: 0x0, symName: __RINvNtCs4jSjb1l5x4F_4core3ptr9drop_glueINtNtCslD6GJiPj7gM_9addr2line4unit8ResUnitsINtNtNtCsiM5UA4RzYIa_5gimli4read12endian_slice11EndianSliceNtNtB1p_9endianity12LittleEndianEEECs6Pvmk8MDi9B_3std, symObjAddr: 0x263D0, symBinAddr: 0x100045114, symSize: 0xB0 }
  - { offset: 0xC0729, size: 0x8, addend: 0x0, symName: __RINvNtCs4jSjb1l5x4F_4core3ptr9drop_glueINtNtCslD6GJiPj7gM_9addr2line4unit8SupUnitsINtNtNtCsiM5UA4RzYIa_5gimli4read12endian_slice11EndianSliceNtNtB1p_9endianity12LittleEndianEEECs6Pvmk8MDi9B_3std, symObjAddr: 0x26480, symBinAddr: 0x1000451C4, symSize: 0x134 }
  - { offset: 0xC0CE3, size: 0x8, addend: 0x0, symName: __RINvNtCs4jSjb1l5x4F_4core3ptr9drop_glueNtNtNtNtNtCs6Pvmk8MDi9B_3std12backtrace_rs9symbolize5gimli5macho6ObjectEBL_, symObjAddr: 0x265B4, symBinAddr: 0x1000452F8, symSize: 0x9C }
  - { offset: 0xC112B, size: 0x8, addend: 0x0, symName: __RINvNtCs4jSjb1l5x4F_4core3ptr9drop_glueINtNtB4_6option6OptionNtNtNtNtCs6Pvmk8MDi9B_3std12backtrace_rs9symbolize5gimli7MappingEEB15_, symObjAddr: 0x26650, symBinAddr: 0x100045394, symSize: 0xE4 }
  - { offset: 0xC1568, size: 0x8, addend: 0x0, symName: __RINvNtCs4jSjb1l5x4F_4core3ptr9drop_glueSINtNtB4_6option6OptionIBD_NtNtNtNtCs6Pvmk8MDi9B_3std12backtrace_rs9symbolize5gimli7MappingEEEB1a_, symObjAddr: 0x26734, symBinAddr: 0x100045478, symSize: 0x15C }
  - { offset: 0xC19D9, size: 0x8, addend: 0x0, symName: __RINvNtCs4jSjb1l5x4F_4core3ptr9drop_glueINtNtCslD6GJiPj7gM_9addr2line4unit7SupUnitINtNtNtCsiM5UA4RzYIa_5gimli4read12endian_slice11EndianSliceNtNtB1o_9endianity12LittleEndianEEECs6Pvmk8MDi9B_3std, symObjAddr: 0x26890, symBinAddr: 0x1000455D4, symSize: 0xA8 }
  - { offset: 0xC1EA5, size: 0x8, addend: 0x0, symName: __RINvNtCs4jSjb1l5x4F_4core3ptr9drop_glueINtNtCslD6GJiPj7gM_9addr2line4unit7ResUnitINtNtNtCsiM5UA4RzYIa_5gimli4read12endian_slice11EndianSliceNtNtB1o_9endianity12LittleEndianEEECs6Pvmk8MDi9B_3std, symObjAddr: 0x26938, symBinAddr: 0x10004567C, symSize: 0x210 }
  - { offset: 0xC2B65, size: 0x8, addend: 0x0, symName: __RINvNtCs4jSjb1l5x4F_4core3ptr9drop_glueINtNtCscanHOTX2pz9_5alloc4sync8ArcInnerNtNtNtNtCs6Pvmk8MDi9B_3std3sys2fs4unix12InnerReadDirEEB1m_, symObjAddr: 0x26C98, symBinAddr: 0x1000459DC, symSize: 0x58 }
  - { offset: 0xC2DD2, size: 0x8, addend: 0x0, symName: __RINvNtCs4jSjb1l5x4F_4core3ptr9drop_glueINtNtCscanHOTX2pz9_5alloc4sync8ArcInnerINtNtNtCsiM5UA4RzYIa_5gimli4read5dwarf5DwarfINtNtB1j_12endian_slice11EndianSliceNtNtB1l_9endianity12LittleEndianEEEECs6Pvmk8MDi9B_3std, symObjAddr: 0x26E40, symBinAddr: 0x100045B84, symSize: 0x60 }
  - { offset: 0xC2E9E, size: 0x8, addend: 0x0, symName: __RINvNtCs4jSjb1l5x4F_4core3ptr9drop_glueINtNtCscanHOTX2pz9_5alloc3vec3VecINtNtCslD6GJiPj7gM_9addr2line4unit7ResUnitINtNtNtCsiM5UA4RzYIa_5gimli4read12endian_slice11EndianSliceNtNtB1V_9endianity12LittleEndianEEEECs6Pvmk8MDi9B_3std, symObjAddr: 0x2921C, symBinAddr: 0x100047F60, symSize: 0xAC }
  - { offset: 0xC30BF, size: 0x8, addend: 0x0, symName: __RINvNtCs4jSjb1l5x4F_4core3ptr9drop_glueINtNtCscanHOTX2pz9_5alloc3vec3VecINtNtCslD6GJiPj7gM_9addr2line4unit7SupUnitINtNtNtCsiM5UA4RzYIa_5gimli4read12endian_slice11EndianSliceNtNtB1V_9endianity12LittleEndianEEEECs6Pvmk8MDi9B_3std, symObjAddr: 0x292C8, symBinAddr: 0x10004800C, symSize: 0x144 }
  - { offset: 0xC3710, size: 0x8, addend: 0x0, symName: __RINvNtCs4jSjb1l5x4F_4core3ptr9drop_glueINtCslD6GJiPj7gM_9addr2line7ContextINtNtNtCsiM5UA4RzYIa_5gimli4read12endian_slice11EndianSliceNtNtB1h_9endianity12LittleEndianEEECs6Pvmk8MDi9B_3std, symObjAddr: 0x29B50, symBinAddr: 0x100048894, symSize: 0x74 }
  - { offset: 0xC3966, size: 0x8, addend: 0x0, symName: __RINvNtCs4jSjb1l5x4F_4core3ptr9drop_glueINtNtCscanHOTX2pz9_5alloc3vec3VecINtNtB4_6option6OptionIB19_NtNtNtNtCs6Pvmk8MDi9B_3std12backtrace_rs9symbolize5gimli7MappingEEEEB1H_, symObjAddr: 0x2C9C0, symBinAddr: 0x10004B704, symSize: 0x68 }
  - { offset: 0xC3BCE, size: 0x8, addend: 0x0, symName: __RINvNtCs4jSjb1l5x4F_4core3ptr9drop_glueNtNtCs7v9VnJwQi6H_6object4read9ObjectMapECs6Pvmk8MDi9B_3std, symObjAddr: 0x2CFEC, symBinAddr: 0x10004BD30, symSize: 0x44 }
  - { offset: 0xC3DA4, size: 0x8, addend: 0x0, symName: __RINvNtCs4jSjb1l5x4F_4core3ptr9drop_glueINtNtB4_6option6OptionNtNtCs7v9VnJwQi6H_6object4read9ObjectMapEECs6Pvmk8MDi9B_3std, symObjAddr: 0x2D030, symBinAddr: 0x10004BD74, symSize: 0x4C }
  - { offset: 0xC420B, size: 0x8, addend: 0x0, symName: __RINvNtCs4jSjb1l5x4F_4core3ptr9drop_glueNtNtNtCs6Pvmk8MDi9B_3std2io5error6CustomEBH_, symObjAddr: 0x2FA54, symBinAddr: 0x10004E798, symSize: 0x34 }
  - { offset: 0xC4223, size: 0x8, addend: 0x0, symName: __RINvNtCs4jSjb1l5x4F_4core3ptr9drop_glueNtNtNtCs6Pvmk8MDi9B_3std2io5error6CustomEBH_, symObjAddr: 0x2FA54, symBinAddr: 0x10004E798, symSize: 0x34 }
  - { offset: 0xC4239, size: 0x8, addend: 0x0, symName: __RINvNtCs4jSjb1l5x4F_4core3ptr9drop_glueNtNtNtCs6Pvmk8MDi9B_3std2io5error6CustomEBH_, symObjAddr: 0x2FA54, symBinAddr: 0x10004E798, symSize: 0x34 }
  - { offset: 0xC424F, size: 0x8, addend: 0x0, symName: __RINvNtCs4jSjb1l5x4F_4core3ptr9drop_glueNtNtNtCs6Pvmk8MDi9B_3std2io5error6CustomEBH_, symObjAddr: 0x2FA54, symBinAddr: 0x10004E798, symSize: 0x34 }
  - { offset: 0xC4265, size: 0x8, addend: 0x0, symName: __RINvNtCs4jSjb1l5x4F_4core3ptr9drop_glueNtNtNtCs6Pvmk8MDi9B_3std2io5error6CustomEBH_, symObjAddr: 0x2FA54, symBinAddr: 0x10004E798, symSize: 0x34 }
  - { offset: 0xC43E4, size: 0x8, addend: 0x0, symName: __RINvNtCs4jSjb1l5x4F_4core3ptr9drop_glueNtNvXsf_NtNtCscanHOTX2pz9_5alloc5boxed7convertINtBL_3BoxDNtNtB4_5error5ErrorNtNtB4_6marker4SendNtB1R_4SyncEL_EINtNtB4_7convert4FromNtNtBN_6string6StringE4from11StringErrorECs6Pvmk8MDi9B_3std, symObjAddr: 0x2FA88, symBinAddr: 0x10004E7CC, symSize: 0x14 }
  - { offset: 0xC43FC, size: 0x8, addend: 0x0, symName: __RINvNtCs4jSjb1l5x4F_4core3ptr9drop_glueNtNvXsf_NtNtCscanHOTX2pz9_5alloc5boxed7convertINtBL_3BoxDNtNtB4_5error5ErrorNtNtB4_6marker4SendNtB1R_4SyncEL_EINtNtB4_7convert4FromNtNtBN_6string6StringE4from11StringErrorECs6Pvmk8MDi9B_3std, symObjAddr: 0x2FA88, symBinAddr: 0x10004E7CC, symSize: 0x14 }
  - { offset: 0xC4412, size: 0x8, addend: 0x0, symName: __RINvNtCs4jSjb1l5x4F_4core3ptr9drop_glueNtNvXsf_NtNtCscanHOTX2pz9_5alloc5boxed7convertINtBL_3BoxDNtNtB4_5error5ErrorNtNtB4_6marker4SendNtB1R_4SyncEL_EINtNtB4_7convert4FromNtNtBN_6string6StringE4from11StringErrorECs6Pvmk8MDi9B_3std, symObjAddr: 0x2FA88, symBinAddr: 0x10004E7CC, symSize: 0x14 }
  - { offset: 0xC4529, size: 0x8, addend: 0x0, symName: __RINvNtCs4jSjb1l5x4F_4core3ptr9drop_glueNCNvNtNtCs6Pvmk8MDi9B_3std3sys9backtrace10__print_fmt0EBJ_, symObjAddr: 0x30638, symBinAddr: 0x10004F37C, symSize: 0x18 }
  - { offset: 0xC4675, size: 0x8, addend: 0x0, symName: __RINvNtCs4jSjb1l5x4F_4core3ptr9drop_glueINtNvNtCs6Pvmk8MDi9B_3std2io17default_write_fmt7AdapterINtNtNtB4_2io6cursor6CursorQShEEEBI_, symObjAddr: 0x31158, symBinAddr: 0x10004FE9C, symSize: 0x10 }
  - { offset: 0xC468D, size: 0x8, addend: 0x0, symName: __RINvNtCs4jSjb1l5x4F_4core3ptr9drop_glueINtNvNtCs6Pvmk8MDi9B_3std2io17default_write_fmt7AdapterINtNtNtB4_2io6cursor6CursorQShEEEBI_, symObjAddr: 0x31158, symBinAddr: 0x10004FE9C, symSize: 0x10 }
  - { offset: 0xC4702, size: 0x8, addend: 0x0, symName: __RINvNtCs4jSjb1l5x4F_4core3ptr9drop_glueINtNtNtNtCs6Pvmk8MDi9B_3std4sync6poison6rwlock15RwLockReadGuarduEEBK_, symObjAddr: 0x31DA4, symBinAddr: 0x100050AE8, symSize: 0x6C }
  - { offset: 0xC4800, size: 0x8, addend: 0x0, symName: __RINvNtCs4jSjb1l5x4F_4core3ptr9drop_glueINtNtB4_6result6ResultRNtNtNtCs6Pvmk8MDi9B_3std6thread6thread6ThreadTBX_BY_EEEB14_, symObjAddr: 0x323D4, symBinAddr: 0x100051118, symSize: 0x20 }
  - { offset: 0xC4820, size: 0x8, addend: 0x0, symName: __RINvNtCs4jSjb1l5x4F_4core3ptr9drop_glueINtNtB4_6result6ResultRNtNtNtCs6Pvmk8MDi9B_3std6thread6thread6ThreadTBX_BY_EEEB14_, symObjAddr: 0x323D4, symBinAddr: 0x100051118, symSize: 0x20 }
  - { offset: 0xC4836, size: 0x8, addend: 0x0, symName: __RINvNtCs4jSjb1l5x4F_4core3ptr9drop_glueINtNtB4_6result6ResultRNtNtNtCs6Pvmk8MDi9B_3std6thread6thread6ThreadTBX_BY_EEEB14_, symObjAddr: 0x323D4, symBinAddr: 0x100051118, symSize: 0x20 }
  - { offset: 0xC484C, size: 0x8, addend: 0x0, symName: __RINvNtCs4jSjb1l5x4F_4core3ptr9drop_glueINtNtB4_6result6ResultRNtNtNtCs6Pvmk8MDi9B_3std6thread6thread6ThreadTBX_BY_EEEB14_, symObjAddr: 0x323D4, symBinAddr: 0x100051118, symSize: 0x20 }
  - { offset: 0xC4862, size: 0x8, addend: 0x0, symName: __RINvNtCs4jSjb1l5x4F_4core3ptr9drop_glueINtNtB4_6result6ResultRNtNtNtCs6Pvmk8MDi9B_3std6thread6thread6ThreadTBX_BY_EEEB14_, symObjAddr: 0x323D4, symBinAddr: 0x100051118, symSize: 0x20 }
  - { offset: 0xC4878, size: 0x8, addend: 0x0, symName: __RINvNtCs4jSjb1l5x4F_4core3ptr9drop_glueINtNtB4_6result6ResultRNtNtNtCs6Pvmk8MDi9B_3std6thread6thread6ThreadTBX_BY_EEEB14_, symObjAddr: 0x323D4, symBinAddr: 0x100051118, symSize: 0x20 }
  - { offset: 0xC488E, size: 0x8, addend: 0x0, symName: __RINvNtCs4jSjb1l5x4F_4core3ptr9drop_glueINtNtB4_6result6ResultRNtNtNtCs6Pvmk8MDi9B_3std6thread6thread6ThreadTBX_BY_EEEB14_, symObjAddr: 0x323D4, symBinAddr: 0x100051118, symSize: 0x20 }
  - { offset: 0xC48A4, size: 0x8, addend: 0x0, symName: __RINvNtCs4jSjb1l5x4F_4core3ptr9drop_glueINtNtB4_6result6ResultRNtNtNtCs6Pvmk8MDi9B_3std6thread6thread6ThreadTBX_BY_EEEB14_, symObjAddr: 0x323D4, symBinAddr: 0x100051118, symSize: 0x20 }
  - { offset: 0xC48E0, size: 0x8, addend: 0x0, symName: __RINvNtCs4jSjb1l5x4F_4core3ptr9drop_glueNtNtNtCscanHOTX2pz9_5alloc3ffi5c_str8NulErrorECs6Pvmk8MDi9B_3std, symObjAddr: 0x32420, symBinAddr: 0x100051164, symSize: 0x14 }
  - { offset: 0xC48F8, size: 0x8, addend: 0x0, symName: __RINvNtCs4jSjb1l5x4F_4core3ptr9drop_glueNtNtNtCscanHOTX2pz9_5alloc3ffi5c_str8NulErrorECs6Pvmk8MDi9B_3std, symObjAddr: 0x32420, symBinAddr: 0x100051164, symSize: 0x14 }
  - { offset: 0xC4A8C, size: 0x8, addend: 0x0, symName: __RINvNtCs4jSjb1l5x4F_4core3ptr9drop_glueINtNtNtB4_3mem10drop_guard9DropGuardQINtNtBG_12maybe_uninit11MaybeUninitNtNtNtNtNtNtNtCshWGz5kWo02a_4libc3new5apple10libpthread3sys8__pthread14__pthread_types14pthread_attr_tENCNvMs0_NtNtNtCs6Pvmk8MDi9B_3std3sys6thread4unixNtB3y_6Thread3new0EEB3E_, symObjAddr: 0x33728, symBinAddr: 0x10005246C, symSize: 0x3C }
  - { offset: 0xC4AD9, size: 0x8, addend: 0x0, symName: __RINvNtCs4jSjb1l5x4F_4core3ptr9drop_glueINtNtCscanHOTX2pz9_5alloc5boxed3BoxNtNtNtCs6Pvmk8MDi9B_3std6thread9lifecycle10ThreadInitEEB1g_, symObjAddr: 0x3392C, symBinAddr: 0x100052670, symSize: 0x98 }
  - { offset: 0xC4FC6, size: 0x8, addend: 0x0, symName: __RINvNtCs4jSjb1l5x4F_4core3ptr9drop_glueINtNtNtCscanHOTX2pz9_5alloc3vec9into_iter8IntoIterINtNtBI_5boxed3BoxDINtNtNtB4_3ops8function6FnOnceuEp6OutputuNtNtB4_6marker4SendEL_EEECs6Pvmk8MDi9B_3std, symObjAddr: 0x33EC8, symBinAddr: 0x100052C0C, symSize: 0xEC }
  - { offset: 0xC53D5, size: 0x8, addend: 0x0, symName: __RINvNtCs4jSjb1l5x4F_4core3ptr9drop_glueINtNtCscanHOTX2pz9_5alloc3vec3VecINtNtBG_5boxed3BoxDINtNtNtB4_3ops8function6FnOnceuEp6OutputuNtNtB4_6marker4SendEL_EEECs6Pvmk8MDi9B_3std, symObjAddr: 0x33FB4, symBinAddr: 0x100052CF8, symSize: 0xE0 }
  - { offset: 0xC5785, size: 0x8, addend: 0x0, symName: __RINvNtCs4jSjb1l5x4F_4core3ptr9drop_glueINtNtCscanHOTX2pz9_5alloc5boxed3BoxDINtNtNtB4_3ops8function6FnOnceuEp6OutputuNtNtB4_6marker4SendEL_EECs6Pvmk8MDi9B_3std, symObjAddr: 0x34094, symBinAddr: 0x100052DD8, symSize: 0x70 }
  - { offset: 0xC594A, size: 0x8, addend: 0x0, symName: __RINvNtCs4jSjb1l5x4F_4core3ptr9drop_glueNtNtNtCs6Pvmk8MDi9B_3std6thread9spawnhook10SpawnHooksEBH_, symObjAddr: 0x344E4, symBinAddr: 0x100053228, symSize: 0x88 }
  - { offset: 0xC696B, size: 0x8, addend: 0x0, symName: __RNSNvYNCNvNtNtCs6Pvmk8MDi9B_3std3sys9backtrace10__print_fmts_0INtNtNtCs4jSjb1l5x4F_4core3ops8function6FnOnceTRNtNtNtBc_12backtrace_rs9backtrace5FrameEE9call_once6vtableBc_, symObjAddr: 0x121E4, symBinAddr: 0x100030F28, symSize: 0x4 }
  - { offset: 0xC6989, size: 0x8, addend: 0x0, symName: __RNSNvYNCNvNtNtCs6Pvmk8MDi9B_3std3sys9backtrace10__print_fmts_0INtNtNtCs4jSjb1l5x4F_4core3ops8function6FnOnceTRNtNtNtBc_12backtrace_rs9backtrace5FrameEE9call_once6vtableBc_, symObjAddr: 0x121E4, symBinAddr: 0x100030F28, symSize: 0x4 }
  - { offset: 0xC6A1D, size: 0x8, addend: 0x0, symName: __RNSNvYNCNvNtNtCs6Pvmk8MDi9B_3std3sys9backtrace10__print_fmt0INtNtNtCs4jSjb1l5x4F_4core3ops8function6FnOnceTQNtNtB13_3fmt9FormatterNtNtNtBc_12backtrace_rs5types17BytesOrWideStringEE9call_once6vtableBc_, symObjAddr: 0x30650, symBinAddr: 0x10004F394, symSize: 0x98 }
  - { offset: 0xC6D25, size: 0x8, addend: 0x0, symName: __RNSNvYNCNvNtNtNtCs6Pvmk8MDi9B_3std3sys11personality3gcc14find_eh_action0INtNtNtCs4jSjb1l5x4F_4core3ops8function6FnOnceuE9call_once6vtableBe_, symObjAddr: 0x32C14, symBinAddr: 0x100051958, symSize: 0xC }
  - { offset: 0xC6D78, size: 0x8, addend: 0x0, symName: __RNSNvYNCNvNtNtNtCs6Pvmk8MDi9B_3std3sys11personality3gcc14find_eh_actions_0INtNtNtCs4jSjb1l5x4F_4core3ops8function6FnOnceuE9call_once6vtableBe_, symObjAddr: 0x32C2C, symBinAddr: 0x100051970, symSize: 0xC }
  - { offset: 0xC71F3, size: 0x8, addend: 0x0, symName: __RINvMNtNtCs4jSjb1l5x4F_4core4cell4onceINtB3_8OnceCellNtNtNtCs6Pvmk8MDi9B_3std6thread6thread6ThreadE8try_initNCINvB2_11get_or_initNvNtBT_7current18current_or_unnamedE0zEBV_, symObjAddr: 0x10088, symBinAddr: 0x10002EDCC, symSize: 0x110 }
  - { offset: 0xC7514, size: 0x8, addend: 0x0, symName: __RINvMNtNtCs4jSjb1l5x4F_4core4cell4onceINtB3_8OnceCellINtNtB7_6result6ResultNtNtCslD6GJiPj7gM_9addr2line4line5LinesNtNtCsiM5UA4RzYIa_5gimli4read5ErrorEE8try_initNCINvB2_11get_or_initNCINvMB1d_NtB1d_9LazyLines6borrowINtNtB1Q_12endian_slice11EndianSliceNtNtB1S_9endianity12LittleEndianEE0E0zECs6Pvmk8MDi9B_3std, symObjAddr: 0x19E30, symBinAddr: 0x100038B74, symSize: 0x16DC }
  - { offset: 0xCB519, size: 0x8, addend: 0x0, symName: __RINvMNtNtCs4jSjb1l5x4F_4core4cell4onceINtB3_8OnceCellINtNtB7_6result6ResultINtNtB7_6option6OptionINtNtCscanHOTX2pz9_5alloc5boxed3BoxINtNtCslD6GJiPj7gM_9addr2line4unit7DwoUnitINtNtNtCsiM5UA4RzYIa_5gimli4read12endian_slice11EndianSliceNtNtB2T_9endianity12LittleEndianEEEENtB2R_5ErrorEE8try_initNCINvB2_11get_or_initNCNCNvMB29_INtB29_7ResUnitB2M_E14dwarf_and_units4_00E0zECs6Pvmk8MDi9B_3std, symObjAddr: 0x1D9D0, symBinAddr: 0x10003C714, symSize: 0x48 }
  - { offset: 0xCB538, size: 0x8, addend: 0x0, symName: __RINvMNtNtCs4jSjb1l5x4F_4core4cell4onceINtB3_8OnceCellINtNtB7_6result6ResultINtNtB7_6option6OptionINtNtCscanHOTX2pz9_5alloc5boxed3BoxINtNtCslD6GJiPj7gM_9addr2line4unit7DwoUnitINtNtNtCsiM5UA4RzYIa_5gimli4read12endian_slice11EndianSliceNtNtB2T_9endianity12LittleEndianEEEENtB2R_5ErrorEE8try_initNCINvB2_11get_or_initNCNCNvMB29_INtB29_7ResUnitB2M_E14dwarf_and_units4_00E0zECs6Pvmk8MDi9B_3std, symObjAddr: 0x1D9D0, symBinAddr: 0x10003C714, symSize: 0x48 }
  - { offset: 0xCB54E, size: 0x8, addend: 0x0, symName: __RINvMNtNtCs4jSjb1l5x4F_4core4cell4onceINtB3_8OnceCellINtNtB7_6result6ResultINtNtB7_6option6OptionINtNtCscanHOTX2pz9_5alloc5boxed3BoxINtNtCslD6GJiPj7gM_9addr2line4unit7DwoUnitINtNtNtCsiM5UA4RzYIa_5gimli4read12endian_slice11EndianSliceNtNtB2T_9endianity12LittleEndianEEEENtB2R_5ErrorEE8try_initNCINvB2_11get_or_initNCNCNvMB29_INtB29_7ResUnitB2M_E14dwarf_and_units4_00E0zECs6Pvmk8MDi9B_3std, symObjAddr: 0x1D9D0, symBinAddr: 0x10003C714, symSize: 0x48 }
  - { offset: 0xCB563, size: 0x8, addend: 0x0, symName: __RINvMNtNtCs4jSjb1l5x4F_4core4cell4onceINtB3_8OnceCellINtNtB7_6result6ResultINtNtB7_6option6OptionINtNtCscanHOTX2pz9_5alloc5boxed3BoxINtNtCslD6GJiPj7gM_9addr2line4unit7DwoUnitINtNtNtCsiM5UA4RzYIa_5gimli4read12endian_slice11EndianSliceNtNtB2T_9endianity12LittleEndianEEEENtB2R_5ErrorEE8try_initNCINvB2_11get_or_initNCNCNvMB29_INtB29_7ResUnitB2M_E14dwarf_and_units4_00E0zECs6Pvmk8MDi9B_3std, symObjAddr: 0x1D9D0, symBinAddr: 0x10003C714, symSize: 0x48 }
  - { offset: 0xCB5F4, size: 0x8, addend: 0x0, symName: __RINvMNtNtCs4jSjb1l5x4F_4core4cell4onceINtB3_8OnceCellINtNtB7_6result6ResultINtNtCslD6GJiPj7gM_9addr2line8function9FunctionsINtNtNtCsiM5UA4RzYIa_5gimli4read12endian_slice11EndianSliceNtNtB24_9endianity12LittleEndianEENtB22_5ErrorEE8try_initNCINvB2_11get_or_initNCNvMB1e_INtB1e_13LazyFunctionsB1X_E6borrow0E0zECs6Pvmk8MDi9B_3std, symObjAddr: 0x1DE3C, symBinAddr: 0x10003CB80, symSize: 0xC74 }
  - { offset: 0xCD39B, size: 0x8, addend: 0x0, symName: __RINvMNtNtCs4jSjb1l5x4F_4core4cell4onceINtB3_8OnceCellINtNtB7_6result6ResultINtNtCslD6GJiPj7gM_9addr2line8function8FunctionINtNtNtCsiM5UA4RzYIa_5gimli4read12endian_slice11EndianSliceNtNtB23_9endianity12LittleEndianEENtB21_5ErrorEE8try_initNCINvB2_11get_or_initNCNvMs_B1e_INtB1e_12LazyFunctionB1W_E6borrow0E0zECs6Pvmk8MDi9B_3std, symObjAddr: 0x1EAB0, symBinAddr: 0x10003D7F4, symSize: 0x614 }
  - { offset: 0xCE111, size: 0x8, addend: 0x0, symName: __RINvMNtNtCs4jSjb1l5x4F_4core4cell4onceINtB3_8OnceCellINtNtB7_6result6ResultINtNtB7_6option6OptionINtNtCscanHOTX2pz9_5alloc5boxed3BoxINtNtCslD6GJiPj7gM_9addr2line4unit7DwoUnitINtNtNtCsiM5UA4RzYIa_5gimli4read12endian_slice11EndianSliceNtNtB2T_9endianity12LittleEndianEEEENtB2R_5ErrorEE8try_initNCINvB2_11get_or_initNCNvMB29_INtB29_7ResUnitB2M_E14dwarf_and_units2_0E0zECs6Pvmk8MDi9B_3std, symObjAddr: 0x26368, symBinAddr: 0x1000450AC, symSize: 0x68 }
  - { offset: 0xD0141, size: 0x8, addend: 0x0, symName: __RNvXNtCs4jSjb1l5x4F_4core3anyReNtB2_3Any7type_idCs6Pvmk8MDi9B_3std, symObjAddr: 0x32AB8, symBinAddr: 0x1000517FC, symSize: 0x14 }
  - { offset: 0xD015F, size: 0x8, addend: 0x0, symName: __RNvXNtCs4jSjb1l5x4F_4core3anyReNtB2_3Any7type_idCs6Pvmk8MDi9B_3std, symObjAddr: 0x32AB8, symBinAddr: 0x1000517FC, symSize: 0x14 }
  - { offset: 0xD0171, size: 0x8, addend: 0x0, symName: __RNvXNtCs4jSjb1l5x4F_4core3anyNtNtCscanHOTX2pz9_5alloc6string6StringNtB2_3Any7type_idCs6Pvmk8MDi9B_3std, symObjAddr: 0x32FAC, symBinAddr: 0x100051CF0, symSize: 0x14 }
  - { offset: 0xD018F, size: 0x8, addend: 0x0, symName: __RNvXNtCs4jSjb1l5x4F_4core3anyNtNtCscanHOTX2pz9_5alloc6string6StringNtB2_3Any7type_idCs6Pvmk8MDi9B_3std, symObjAddr: 0x32FAC, symBinAddr: 0x100051CF0, symSize: 0x14 }
  - { offset: 0xD0C1E, size: 0x8, addend: 0x0, symName: __RNvYINtNvNtCs6Pvmk8MDi9B_3std9panicking11begin_panic7PayloadReENtNtCs4jSjb1l5x4F_4core5panic12PanicPayload6as_strB9_, symObjAddr: 0x32AB0, symBinAddr: 0x1000517F4, symSize: 0x8 }
  - { offset: 0xD0D5F, size: 0x8, addend: 0x0, symName: __RNvXs1i_NtCs4jSjb1l5x4F_4core3fmtRNtNtNtB8_5panic8location8LocationNtB6_7Display3fmtCs6Pvmk8MDi9B_3std, symObjAddr: 0x103FC, symBinAddr: 0x10002F140, symSize: 0x60 }
  - { offset: 0xD0E0A, size: 0x8, addend: 0x0, symName: __RNvXsQ_NtNtCs4jSjb1l5x4F_4core3fmt3numlNtB7_5Debug3fmt, symObjAddr: 0x11A9C, symBinAddr: 0x1000307E0, symSize: 0xC8 }
  - { offset: 0xD0ED1, size: 0x8, addend: 0x0, symName: __RNvXsZ_NtNtCs4jSjb1l5x4F_4core3fmt3numjNtB7_5Debug3fmt.238, symObjAddr: 0x32938, symBinAddr: 0x10005167C, symSize: 0xE4 }
  - { offset: 0xD0FFB, size: 0x8, addend: 0x0, symName: __RNvXs1g_NtCs4jSjb1l5x4F_4core3fmtRlNtB6_5Debug3fmtCs6Pvmk8MDi9B_3std, symObjAddr: 0x10E74, symBinAddr: 0x10002FBB8, symSize: 0xCC }
  - { offset: 0xD10EF, size: 0x8, addend: 0x0, symName: __RNvXs1g_NtCs4jSjb1l5x4F_4core3fmtRINtNtCscanHOTX2pz9_5alloc3vec3VechENtB6_5Debug3fmtCs6Pvmk8MDi9B_3std, symObjAddr: 0x325F4, symBinAddr: 0x100051338, symSize: 0x1E4 }
  - { offset: 0xD1397, size: 0x8, addend: 0x0, symName: __RNvXs1g_NtCs4jSjb1l5x4F_4core3fmtRhNtB6_5Debug3fmtCs6Pvmk8MDi9B_3std, symObjAddr: 0x327D8, symBinAddr: 0x10005151C, symSize: 0x160 }
  - { offset: 0xD15DC, size: 0x8, addend: 0x0, symName: __RNvXsq_NtCs4jSjb1l5x4F_4core3fmtONtNtB7_3ffi6c_voidNtB5_5Debug3fmtCs6Pvmk8MDi9B_3std, symObjAddr: 0x14B88, symBinAddr: 0x1000338CC, symSize: 0xB8 }
  - { offset: 0xD170B, size: 0x8, addend: 0x0, symName: __RNvYINtNvNtCs6Pvmk8MDi9B_3std2io17default_write_fmt7AdapterINtNtNtCs4jSjb1l5x4F_4core2io6cursor6CursorQShEENtNtB12_3fmt5Write10write_charB9_, symObjAddr: 0x31208, symBinAddr: 0x10004FF4C, symSize: 0x138 }
  - { offset: 0xD18D9, size: 0x8, addend: 0x0, symName: __RNvYINtNvNtCs6Pvmk8MDi9B_3std2io17default_write_fmt7AdapterINtNtNtCs4jSjb1l5x4F_4core2io6cursor6CursorQShEENtNtB12_3fmt5Write9write_fmtB9_, symObjAddr: 0x31340, symBinAddr: 0x100050084, symSize: 0x14 }
  - { offset: 0xD1909, size: 0x8, addend: 0x0, symName: __RNvYINtNvNtCs6Pvmk8MDi9B_3std2io17default_write_fmt7AdapterNtNtNtNtB9_3sys5stdio4unix6StderrENtNtCs4jSjb1l5x4F_4core3fmt5Write10write_charB9_, symObjAddr: 0x31F9C, symBinAddr: 0x100050CE0, symSize: 0xB0 }
  - { offset: 0xD197D, size: 0x8, addend: 0x0, symName: __RNvYINtNvNtCs6Pvmk8MDi9B_3std2io17default_write_fmt7AdapterNtNtNtNtB9_3sys5stdio4unix6StderrENtNtCs4jSjb1l5x4F_4core3fmt5Write9write_fmtB9_, symObjAddr: 0x3204C, symBinAddr: 0x100050D90, symSize: 0x14 }
  - { offset: 0xD19AD, size: 0x8, addend: 0x0, symName: __RNvYNtNtCscanHOTX2pz9_5alloc6string6StringNtNtCs4jSjb1l5x4F_4core3fmt5Write9write_fmtCs6Pvmk8MDi9B_3std, symObjAddr: 0x3315C, symBinAddr: 0x100051EA0, symSize: 0x14 }
  - { offset: 0xD2D8F, size: 0x8, addend: 0x0, symName: __RINvNtNtNtCs4jSjb1l5x4F_4core5slice4sort8unstable7ipnsortTRShyENCINvMB6_SBT_20sort_unstable_by_keyyNCNvMs_NtNtNtNtCs6Pvmk8MDi9B_3std12backtrace_rs9symbolize5gimli5machoNtB1G_6Object5parses0_0E0EB1O_, symObjAddr: 0x2CA28, symBinAddr: 0x10004B76C, symSize: 0xC4 }
  - { offset: 0xD2DAD, size: 0x8, addend: 0x0, symName: __RINvNtNtNtCs4jSjb1l5x4F_4core5slice4sort8unstable7ipnsortTRShyENCINvMB6_SBT_20sort_unstable_by_keyyNCNvMs_NtNtNtNtCs6Pvmk8MDi9B_3std12backtrace_rs9symbolize5gimli5machoNtB1G_6Object5parses0_0E0EB1O_, symObjAddr: 0x2CA28, symBinAddr: 0x10004B76C, symSize: 0xC4 }
  - { offset: 0xD2EE6, size: 0x8, addend: 0x0, symName: __RINvNtNtNtCs4jSjb1l5x4F_4core5slice4sort8unstable7ipnsortTRShyENCINvMB6_SBT_20sort_unstable_by_keyBU_NCNvMs_NtNtNtNtCs6Pvmk8MDi9B_3std12backtrace_rs9symbolize5gimli5machoNtB1I_6Object5parses_0E0EB1Q_, symObjAddr: 0x2CAEC, symBinAddr: 0x10004B830, symSize: 0x174 }
  - { offset: 0xD323A, size: 0x8, addend: 0x0, symName: __RINvNtNtNtNtCs4jSjb1l5x4F_4core5slice4sort8unstable9quicksort9quicksortTRShyENCINvMB8_SB17_20sort_unstable_by_keyB18_NCNvMs_NtNtNtNtCs6Pvmk8MDi9B_3std12backtrace_rs9symbolize5gimli5machoNtB1Y_6Object5parses_0E0EB26_, symObjAddr: 0x2DE6C, symBinAddr: 0x10004CBB0, symSize: 0x4F0 }
  - { offset: 0xD3CF4, size: 0x8, addend: 0x0, symName: __RINvNtNtNtNtCs4jSjb1l5x4F_4core5slice4sort8unstable9quicksort9quicksortTRShyENCINvMB8_SB17_20sort_unstable_by_keyyNCNvMs_NtNtNtNtCs6Pvmk8MDi9B_3std12backtrace_rs9symbolize5gimli5machoNtB1V_6Object5parses0_0E0EB23_, symObjAddr: 0x2EB54, symBinAddr: 0x10004D898, symSize: 0x3D0 }
  - { offset: 0xD4466, size: 0x8, addend: 0x0, symName: __RINvNtNtNtNtCs4jSjb1l5x4F_4core5slice4sort8unstable8heapsort8heapsortTRShyENCINvMB8_SB15_20sort_unstable_by_keyB16_NCNvMs_NtNtNtNtCs6Pvmk8MDi9B_3std12backtrace_rs9symbolize5gimli5machoNtB1W_6Object5parses_0E0EB24_, symObjAddr: 0x2E744, symBinAddr: 0x10004D488, symSize: 0x15C }
  - { offset: 0xD4780, size: 0x8, addend: 0x0, symName: __RINvNtNtNtNtCs4jSjb1l5x4F_4core5slice4sort8unstable8heapsort8heapsortTRShyENCINvMB8_SB15_20sort_unstable_by_keyyNCNvMs_NtNtNtNtCs6Pvmk8MDi9B_3std12backtrace_rs9symbolize5gimli5machoNtB1T_6Object5parses0_0E0EB21_, symObjAddr: 0x2F3BC, symBinAddr: 0x10004E100, symSize: 0xFC }
  - { offset: 0xD49D9, size: 0x8, addend: 0x0, symName: __RINvNtNtNtCs4jSjb1l5x4F_4core5slice4sort6stable14driftsort_mainNtNtCslD6GJiPj7gM_9addr2line4line12LineSequenceNCINvMNtCscanHOTX2pz9_5alloc5sliceSBZ_11sort_by_keyyNCINvMs_B11_NtB11_5Lines5parseINtNtNtCsiM5UA4RzYIa_5gimli4read12endian_slice11EndianSliceNtNtB3b_9endianity12LittleEndianEEs_0E0INtNtB1S_3vec3VecBZ_EECs6Pvmk8MDi9B_3std, symObjAddr: 0x1BAB4, symBinAddr: 0x10003A7F8, symSize: 0x114 }
  - { offset: 0xD4EA6, size: 0x8, addend: 0x0, symName: __RINvNtNtNtNtCs4jSjb1l5x4F_4core5slice4sort6stable5drift4sortNtNtCslD6GJiPj7gM_9addr2line4line12LineSequenceNCINvMNtCscanHOTX2pz9_5alloc5sliceSBW_11sort_by_keyyNCINvMs_BY_NtBY_5Lines5parseINtNtNtCsiM5UA4RzYIa_5gimli4read12endian_slice11EndianSliceNtNtB36_9endianity12LittleEndianEEs_0E0ECs6Pvmk8MDi9B_3std, symObjAddr: 0x1C4C8, symBinAddr: 0x10003B20C, symSize: 0x4E4 }
  - { offset: 0xD55D8, size: 0x8, addend: 0x0, symName: __RINvNtNtNtNtCs4jSjb1l5x4F_4core5slice4sort6stable5drift4sortNtNtCslD6GJiPj7gM_9addr2line8function22InlinedFunctionAddressNCINvMNtCscanHOTX2pz9_5alloc5sliceSBW_7sort_byNCNvMs1_BY_INtBY_8FunctionINtNtNtCsiM5UA4RzYIa_5gimli4read12endian_slice11EndianSliceNtNtB3c_9endianity12LittleEndianEE5parse0E0ECs6Pvmk8MDi9B_3std, symObjAddr: 0x21F20, symBinAddr: 0x100040C64, symSize: 0x5F0 }
  - { offset: 0xD5D2F, size: 0x8, addend: 0x0, symName: __RINvNtNtNtNtCs4jSjb1l5x4F_4core5slice4sort6stable5drift4sortNtNtCslD6GJiPj7gM_9addr2line8function15FunctionAddressNCINvMNtCscanHOTX2pz9_5alloc5sliceSBW_11sort_by_keyyNCNvMs0_BY_INtBY_9FunctionsINtNtNtCsiM5UA4RzYIa_5gimli4read12endian_slice11EndianSliceNtNtB3c_9endianity12LittleEndianEE5parses_0E0ECs6Pvmk8MDi9B_3std, symObjAddr: 0x24ADC, symBinAddr: 0x100043820, symSize: 0x528 }
  - { offset: 0xD644C, size: 0x8, addend: 0x0, symName: __RINvNtNtNtNtCs4jSjb1l5x4F_4core5slice4sort6stable5drift4sortNtNtCslD6GJiPj7gM_9addr2line4unit9UnitRangeNCINvMNtCscanHOTX2pz9_5alloc5sliceSBW_11sort_by_keyyNCNvMs_BY_INtBY_8ResUnitsINtNtNtCsiM5UA4RzYIa_5gimli4read12endian_slice11EndianSliceNtNtB2Z_9endianity12LittleEndianEE5parses2_0E0ECs6Pvmk8MDi9B_3std, symObjAddr: 0x2AD2C, symBinAddr: 0x100049A70, symSize: 0x4E4 }
  - { offset: 0xD6B7E, size: 0x8, addend: 0x0, symName: __RINvNtNtNtNtCs4jSjb1l5x4F_4core5slice4sort6stable5drift4sortTNtNtCsiM5UA4RzYIa_5gimli6common15DebugInfoOffsetNtBZ_18DebugArangesOffsetENCINvMNtCscanHOTX2pz9_5alloc5sliceSBW_11sort_by_keyBX_NCNvMs_NtCslD6GJiPj7gM_9addr2line4unitINtB38_8ResUnitsINtNtNtB11_4read12endian_slice11EndianSliceNtNtB11_9endianity12LittleEndianEE5parse0E0ECs6Pvmk8MDi9B_3std, symObjAddr: 0x2B98C, symBinAddr: 0x10004A6D0, symSize: 0x4CC }
  - { offset: 0xD722A, size: 0x8, addend: 0x0, symName: __RINvNtNtNtNtCs4jSjb1l5x4F_4core5slice4sort6stable5drift4sortNtNtCs7v9VnJwQi6H_6object4read14ObjectMapEntryNCINvMNtCscanHOTX2pz9_5alloc5sliceSBW_11sort_by_keyyNCNvMs7_BY_INtBY_9SymbolMapBW_E3new0E0ECs6Pvmk8MDi9B_3std, symObjAddr: 0x2D07C, symBinAddr: 0x10004BDC0, symSize: 0x530 }
  - { offset: 0xD7B7B, size: 0x8, addend: 0x0, symName: __RINvNtNtNtNtCs4jSjb1l5x4F_4core5slice4sort6stable9quicksort9quicksortNtNtCslD6GJiPj7gM_9addr2line4line12LineSequenceNCINvMNtCscanHOTX2pz9_5alloc5sliceSB15_11sort_by_keyyNCINvMs_B17_NtB17_5Lines5parseINtNtNtCsiM5UA4RzYIa_5gimli4read12endian_slice11EndianSliceNtNtB3i_9endianity12LittleEndianEEs_0E0ECs6Pvmk8MDi9B_3std, symObjAddr: 0x1C9AC, symBinAddr: 0x10003B6F0, symSize: 0x6A8 }
  - { offset: 0xD86A0, size: 0x8, addend: 0x0, symName: __RINvNtNtNtNtCs4jSjb1l5x4F_4core5slice4sort6stable9quicksort9quicksortNtNtCslD6GJiPj7gM_9addr2line8function22InlinedFunctionAddressNCINvMNtCscanHOTX2pz9_5alloc5sliceSB15_7sort_byNCNvMs1_B17_INtB17_8FunctionINtNtNtCsiM5UA4RzYIa_5gimli4read12endian_slice11EndianSliceNtNtB3o_9endianity12LittleEndianEE5parse0E0ECs6Pvmk8MDi9B_3std, symObjAddr: 0x22510, symBinAddr: 0x100041254, symSize: 0x6FC }
  - { offset: 0xD8E0D, size: 0x8, addend: 0x0, symName: __RINvNtNtNtNtCs4jSjb1l5x4F_4core5slice4sort6stable9quicksort9quicksortNtNtCslD6GJiPj7gM_9addr2line8function15FunctionAddressNCINvMNtCscanHOTX2pz9_5alloc5sliceSB15_11sort_by_keyyNCNvMs0_B17_INtB17_9FunctionsINtNtNtCsiM5UA4RzYIa_5gimli4read12endian_slice11EndianSliceNtNtB3o_9endianity12LittleEndianEE5parses_0E0ECs6Pvmk8MDi9B_3std, symObjAddr: 0x25004, symBinAddr: 0x100043D48, symSize: 0x7C4 }
  - { offset: 0xD9A1C, size: 0x8, addend: 0x0, symName: __RINvNtNtNtNtCs4jSjb1l5x4F_4core5slice4sort6stable9quicksort9quicksortNtNtCslD6GJiPj7gM_9addr2line4unit9UnitRangeNCINvMNtCscanHOTX2pz9_5alloc5sliceSB15_11sort_by_keyyNCNvMs_B17_INtB17_8ResUnitsINtNtNtCsiM5UA4RzYIa_5gimli4read12endian_slice11EndianSliceNtNtB3b_9endianity12LittleEndianEE5parses2_0E0ECs6Pvmk8MDi9B_3std, symObjAddr: 0x2B210, symBinAddr: 0x100049F54, symSize: 0x6B0 }
  - { offset: 0xDA541, size: 0x8, addend: 0x0, symName: __RINvNtNtNtNtCs4jSjb1l5x4F_4core5slice4sort6stable9quicksort9quicksortTNtNtCsiM5UA4RzYIa_5gimli6common15DebugInfoOffsetNtB18_18DebugArangesOffsetENCINvMNtCscanHOTX2pz9_5alloc5sliceSB15_11sort_by_keyB16_NCNvMs_NtCslD6GJiPj7gM_9addr2line4unitINtB3k_8ResUnitsINtNtNtB1a_4read12endian_slice11EndianSliceNtNtB1a_9endianity12LittleEndianEE5parse0E0ECs6Pvmk8MDi9B_3std, symObjAddr: 0x2BE58, symBinAddr: 0x10004AB9C, symSize: 0x7E4 }
  - { offset: 0xDB529, size: 0x8, addend: 0x0, symName: __RINvNtNtNtNtCs4jSjb1l5x4F_4core5slice4sort6stable9quicksort9quicksortNtNtCs7v9VnJwQi6H_6object4read14ObjectMapEntryNCINvMNtCscanHOTX2pz9_5alloc5sliceSB15_11sort_by_keyyNCNvMs7_B17_INtB17_9SymbolMapB15_E3new0E0ECs6Pvmk8MDi9B_3std, symObjAddr: 0x2D5AC, symBinAddr: 0x10004C2F0, symSize: 0x7F0 }
  - { offset: 0xDC146, size: 0x8, addend: 0x0, symName: __RINvNtNtNtCs4jSjb1l5x4F_4core5slice4sort6stable14driftsort_mainNtNtCslD6GJiPj7gM_9addr2line8function22InlinedFunctionAddressNCINvMNtCscanHOTX2pz9_5alloc5sliceSBZ_7sort_byNCNvMs1_B11_INtB11_8FunctionINtNtNtCsiM5UA4RzYIa_5gimli4read12endian_slice11EndianSliceNtNtB3h_9endianity12LittleEndianEE5parse0E0INtNtB26_3vec3VecBZ_EECs6Pvmk8MDi9B_3std, symObjAddr: 0x21D14, symBinAddr: 0x100040A58, symSize: 0x104 }
  - { offset: 0xDC502, size: 0x8, addend: 0x0, symName: __RINvNtNtNtCs4jSjb1l5x4F_4core5slice4sort6stable14driftsort_mainNtNtCslD6GJiPj7gM_9addr2line8function15FunctionAddressNCINvMNtCscanHOTX2pz9_5alloc5sliceSBZ_11sort_by_keyyNCNvMs0_B11_INtB11_9FunctionsINtNtNtCsiM5UA4RzYIa_5gimli4read12endian_slice11EndianSliceNtNtB3h_9endianity12LittleEndianEE5parses_0E0INtNtB1Z_3vec3VecBZ_EECs6Pvmk8MDi9B_3std, symObjAddr: 0x246CC, symBinAddr: 0x100043410, symSize: 0x110 }
  - { offset: 0xDC8B6, size: 0x8, addend: 0x0, symName: __RINvNtNtNtCs4jSjb1l5x4F_4core5slice4sort6stable14driftsort_mainTNtNtCsiM5UA4RzYIa_5gimli6common15DebugInfoOffsetNtB12_18DebugArangesOffsetENCINvMNtCscanHOTX2pz9_5alloc5sliceSBZ_11sort_by_keyB10_NCNvMs_NtCslD6GJiPj7gM_9addr2line4unitINtB3d_8ResUnitsINtNtNtB14_4read12endian_slice11EndianSliceNtNtB14_9endianity12LittleEndianEE5parse0E0INtNtB2l_3vec3VecBZ_EECs6Pvmk8MDi9B_3std, symObjAddr: 0x2715C, symBinAddr: 0x100045EA0, symSize: 0x104 }
  - { offset: 0xDCC72, size: 0x8, addend: 0x0, symName: __RINvNtNtNtCs4jSjb1l5x4F_4core5slice4sort6stable14driftsort_mainNtNtCslD6GJiPj7gM_9addr2line4unit9UnitRangeNCINvMNtCscanHOTX2pz9_5alloc5sliceSBZ_11sort_by_keyyNCNvMs_B11_INtB11_8ResUnitsINtNtNtCsiM5UA4RzYIa_5gimli4read12endian_slice11EndianSliceNtNtB34_9endianity12LittleEndianEE5parses2_0E0INtNtB1O_3vec3VecBZ_EECs6Pvmk8MDi9B_3std, symObjAddr: 0x27694, symBinAddr: 0x1000463D8, symSize: 0x104 }
  - { offset: 0xDD02E, size: 0x8, addend: 0x0, symName: __RINvNtNtNtCs4jSjb1l5x4F_4core5slice4sort6stable14driftsort_mainNtNtCs7v9VnJwQi6H_6object4read14ObjectMapEntryNCINvMNtCscanHOTX2pz9_5alloc5sliceSBZ_11sort_by_keyyNCNvMs7_B11_INtB11_9SymbolMapBZ_E3new0E0INtNtB1R_3vec3VecBZ_EECs6Pvmk8MDi9B_3std, symObjAddr: 0x2CE24, symBinAddr: 0x10004BB68, symSize: 0x110 }
  - { offset: 0xDD4BA, size: 0x8, addend: 0x0, symName: __RINvNtNtNtNtCs4jSjb1l5x4F_4core5slice4sort6shared9smallsort25insertion_sort_shift_leftNtNtCslD6GJiPj7gM_9addr2line4line12LineSequenceNCINvMNtCscanHOTX2pz9_5alloc5sliceSB1m_11sort_by_keyyNCINvMs_B1o_NtB1o_5Lines5parseINtNtNtCsiM5UA4RzYIa_5gimli4read12endian_slice11EndianSliceNtNtB3z_9endianity12LittleEndianEEs_0E0ECs6Pvmk8MDi9B_3std, symObjAddr: 0x1BBC8, symBinAddr: 0x10003A90C, symSize: 0xA4 }
  - { offset: 0xDD667, size: 0x8, addend: 0x0, symName: __RINvNtNtNtNtCs4jSjb1l5x4F_4core5slice4sort6shared9smallsort25insertion_sort_shift_leftNtNtCslD6GJiPj7gM_9addr2line8function22InlinedFunctionAddressNCINvMNtCscanHOTX2pz9_5alloc5sliceSB1m_7sort_byNCNvMs1_B1o_INtB1o_8FunctionINtNtNtCsiM5UA4RzYIa_5gimli4read12endian_slice11EndianSliceNtNtB3F_9endianity12LittleEndianEE5parse0E0ECs6Pvmk8MDi9B_3std, symObjAddr: 0x21E18, symBinAddr: 0x100040B5C, symSize: 0xB8 }
  - { offset: 0xDD7C9, size: 0x8, addend: 0x0, symName: __RINvNtNtNtNtCs4jSjb1l5x4F_4core5slice4sort6shared9smallsort12sort4_stableNtNtCslD6GJiPj7gM_9addr2line8function22InlinedFunctionAddressNCINvMNtCscanHOTX2pz9_5alloc5sliceSB19_7sort_byNCNvMs1_B1b_INtB1b_8FunctionINtNtNtCsiM5UA4RzYIa_5gimli4read12endian_slice11EndianSliceNtNtB3s_9endianity12LittleEndianEE5parse0E0ECs6Pvmk8MDi9B_3std, symObjAddr: 0x22C0C, symBinAddr: 0x100041950, symSize: 0x17C }
  - { offset: 0xDDA54, size: 0x8, addend: 0x0, symName: __RINvNtNtNtNtCs4jSjb1l5x4F_4core5slice4sort6shared9smallsort12sort8_stableTNtNtCsiM5UA4RzYIa_5gimli6common15DebugInfoOffsetNtB1c_18DebugArangesOffsetENCINvMNtCscanHOTX2pz9_5alloc5sliceSB19_11sort_by_keyB1a_NCNvMs_NtCslD6GJiPj7gM_9addr2line4unitINtB3o_8ResUnitsINtNtNtB1e_4read12endian_slice11EndianSliceNtNtB1e_9endianity12LittleEndianEE5parse0E0ECs6Pvmk8MDi9B_3std, symObjAddr: 0x2C63C, symBinAddr: 0x10004B380, symSize: 0x2B8 }
  - { offset: 0xDDF3A, size: 0x8, addend: 0x0, symName: __RINvNtNtNtNtCs4jSjb1l5x4F_4core5slice4sort6shared9smallsort25insertion_sort_shift_leftTRShyENCINvMB8_SB1m_20sort_unstable_by_keyB1n_NCNvMs_NtNtNtNtCs6Pvmk8MDi9B_3std12backtrace_rs9symbolize5gimli5machoNtB2d_6Object5parses_0E0EB2l_, symObjAddr: 0x2CC60, symBinAddr: 0x10004B9A4, symSize: 0xF4 }
  - { offset: 0xDE113, size: 0x8, addend: 0x0, symName: __RINvNtNtNtNtCs4jSjb1l5x4F_4core5slice4sort6shared9smallsort25insertion_sort_shift_leftNtNtCs7v9VnJwQi6H_6object4read14ObjectMapEntryNCINvMNtCscanHOTX2pz9_5alloc5sliceSB1m_11sort_by_keyyNCNvMs7_B1o_INtB1o_9SymbolMapB1m_E3new0E0ECs6Pvmk8MDi9B_3std, symObjAddr: 0x2CF34, symBinAddr: 0x10004BC78, symSize: 0xB8 }
  - { offset: 0xDE2BA, size: 0x8, addend: 0x0, symName: __RINvNtNtNtNtCs4jSjb1l5x4F_4core5slice4sort6shared9smallsort18small_sort_generalTRShyENCINvMB8_SB1f_20sort_unstable_by_keyB1g_NCNvMs_NtNtNtNtCs6Pvmk8MDi9B_3std12backtrace_rs9symbolize5gimli5machoNtB26_6Object5parses_0E0EB2e_, symObjAddr: 0x2E35C, symBinAddr: 0x10004D0A0, symSize: 0x3E8 }
  - { offset: 0xDE81E, size: 0x8, addend: 0x0, symName: __RINvNtNtNtNtCs4jSjb1l5x4F_4core5slice4sort6shared9smallsort12sort4_stableTRShyENCINvMB8_SB19_20sort_unstable_by_keyB1a_NCNvMs_NtNtNtNtCs6Pvmk8MDi9B_3std12backtrace_rs9symbolize5gimli5machoNtB20_6Object5parses_0E0EB28_, symObjAddr: 0x2E9D4, symBinAddr: 0x10004D718, symSize: 0x180 }
  - { offset: 0xDEC7A, size: 0x8, addend: 0x0, symName: __RINvNtNtNtNtCs4jSjb1l5x4F_4core5slice4sort6shared9smallsort18small_sort_generalTRShyENCINvMB8_SB1f_20sort_unstable_by_keyyNCNvMs_NtNtNtNtCs6Pvmk8MDi9B_3std12backtrace_rs9symbolize5gimli5machoNtB23_6Object5parses0_0E0EB2b_, symObjAddr: 0x2EF24, symBinAddr: 0x10004DC68, symSize: 0x498 }
  - { offset: 0xDF3D3, size: 0x8, addend: 0x0, symName: __RINvNtNtNtNtCs4jSjb1l5x4F_4core5slice4sort6shared5pivot11median3_recNtNtCslD6GJiPj7gM_9addr2line4line12LineSequenceNCINvMNtCscanHOTX2pz9_5alloc5sliceSB14_11sort_by_keyyNCINvMs_B16_NtB16_5Lines5parseINtNtNtCsiM5UA4RzYIa_5gimli4read12endian_slice11EndianSliceNtNtB3h_9endianity12LittleEndianEEs_0E0ECs6Pvmk8MDi9B_3std, symObjAddr: 0x1D054, symBinAddr: 0x10003BD98, symSize: 0xCC }
  - { offset: 0xDF4E2, size: 0x8, addend: 0x0, symName: __RINvNtNtNtNtCs4jSjb1l5x4F_4core5slice4sort6shared5pivot11median3_recNtNtCslD6GJiPj7gM_9addr2line8function22InlinedFunctionAddressNCINvMNtCscanHOTX2pz9_5alloc5sliceSB14_7sort_byNCNvMs1_B16_INtB16_8FunctionINtNtNtCsiM5UA4RzYIa_5gimli4read12endian_slice11EndianSliceNtNtB3n_9endianity12LittleEndianEE5parse0E0ECs6Pvmk8MDi9B_3std, symObjAddr: 0x22D88, symBinAddr: 0x100041ACC, symSize: 0x118 }
  - { offset: 0xDF5F4, size: 0x8, addend: 0x0, symName: __RINvNtNtNtNtCs4jSjb1l5x4F_4core5slice4sort6shared5pivot11median3_recNtNtCslD6GJiPj7gM_9addr2line8function15FunctionAddressNCINvMNtCscanHOTX2pz9_5alloc5sliceSB14_11sort_by_keyyNCNvMs0_B16_INtB16_9FunctionsINtNtNtCsiM5UA4RzYIa_5gimli4read12endian_slice11EndianSliceNtNtB3n_9endianity12LittleEndianEE5parses_0E0ECs6Pvmk8MDi9B_3std, symObjAddr: 0x257C8, symBinAddr: 0x10004450C, symSize: 0xD0 }
  - { offset: 0xDF703, size: 0x8, addend: 0x0, symName: __RINvNtNtNtNtCs4jSjb1l5x4F_4core5slice4sort6shared5pivot11median3_recNtNtCslD6GJiPj7gM_9addr2line4unit9UnitRangeNCINvMNtCscanHOTX2pz9_5alloc5sliceSB14_11sort_by_keyyNCNvMs_B16_INtB16_8ResUnitsINtNtNtCsiM5UA4RzYIa_5gimli4read12endian_slice11EndianSliceNtNtB3a_9endianity12LittleEndianEE5parses2_0E0ECs6Pvmk8MDi9B_3std, symObjAddr: 0x2B8C0, symBinAddr: 0x10004A604, symSize: 0xCC }
  - { offset: 0xDF812, size: 0x8, addend: 0x0, symName: __RINvNtNtNtNtCs4jSjb1l5x4F_4core5slice4sort6shared5pivot11median3_recTNtNtCsiM5UA4RzYIa_5gimli6common15DebugInfoOffsetNtB17_18DebugArangesOffsetENCINvMNtCscanHOTX2pz9_5alloc5sliceSB14_11sort_by_keyB15_NCNvMs_NtCslD6GJiPj7gM_9addr2line4unitINtB3j_8ResUnitsINtNtNtB19_4read12endian_slice11EndianSliceNtNtB19_9endianity12LittleEndianEE5parse0E0ECs6Pvmk8MDi9B_3std, symObjAddr: 0x2C8F4, symBinAddr: 0x10004B638, symSize: 0xCC }
  - { offset: 0xDF94F, size: 0x8, addend: 0x0, symName: __RINvNtNtNtNtCs4jSjb1l5x4F_4core5slice4sort6shared5pivot11median3_recNtNtCs7v9VnJwQi6H_6object4read14ObjectMapEntryNCINvMNtCscanHOTX2pz9_5alloc5sliceSB14_11sort_by_keyyNCNvMs7_B16_INtB16_9SymbolMapB14_E3new0E0ECs6Pvmk8MDi9B_3std, symObjAddr: 0x2DD9C, symBinAddr: 0x10004CAE0, symSize: 0xD0 }
  - { offset: 0xDFA5E, size: 0x8, addend: 0x0, symName: __RINvNtNtNtNtCs4jSjb1l5x4F_4core5slice4sort6shared5pivot11median3_recTRShyENCINvMB8_SB14_20sort_unstable_by_keyB15_NCNvMs_NtNtNtNtCs6Pvmk8MDi9B_3std12backtrace_rs9symbolize5gimli5machoNtB1V_6Object5parses_0E0EB23_, symObjAddr: 0x2E8A0, symBinAddr: 0x10004D5E4, symSize: 0x134 }
  - { offset: 0xDFCA9, size: 0x8, addend: 0x0, symName: __RINvNtNtNtNtCs4jSjb1l5x4F_4core5slice4sort6shared5pivot11median3_recTRShyENCINvMB8_SB14_20sort_unstable_by_keyyNCNvMs_NtNtNtNtCs6Pvmk8MDi9B_3std12backtrace_rs9symbolize5gimli5machoNtB1S_6Object5parses0_0E0EB20_, symObjAddr: 0x2F4B8, symBinAddr: 0x10004E1FC, symSize: 0xD0 }
  - { offset: 0xE0005, size: 0x8, addend: 0x0, symName: __RNvXs3_NtNtCs4jSjb1l5x4F_4core2io5errorNtB5_9ErrorKindNtNtB9_3fmt5Debug3fmt, symObjAddr: 0x11A6C, symBinAddr: 0x1000307B0, symSize: 0x30 }
  - { offset: 0xE0060, size: 0x8, addend: 0x0, symName: __RINvNtCs4jSjb1l5x4F_4core9panicking13assert_failedllECs6Pvmk8MDi9B_3std, symObjAddr: 0x10E54, symBinAddr: 0x10002FB98, symSize: 0x20 }
  - { offset: 0xE09C3, size: 0x8, addend: 0x0, symName: __RNvXst_NtNtCs4jSjb1l5x4F_4core3str7patternReNtB5_7Pattern15is_contained_in, symObjAddr: 0x2FDFC, symBinAddr: 0x10004EB40, symSize: 0x73C }
  - { offset: 0xE1176, size: 0x8, addend: 0x0, symName: __RNCNvNtNtCs4jSjb1l5x4F_4core3str7pattern13simd_containss0_0Cs6Pvmk8MDi9B_3std, symObjAddr: 0x30538, symBinAddr: 0x10004F27C, symSize: 0x100 }
  - { offset: 0xE155C, size: 0x8, addend: 0x0, symName: __RNvYNtNvXsf_NtNtCscanHOTX2pz9_5alloc5boxed7convertINtBc_3BoxDNtNtCs4jSjb1l5x4F_4core5error5ErrorNtNtB11_6marker4SendNtB1y_4SyncEL_EINtNtB11_7convert4FromNtNtBe_6string6StringE4from11StringErrorBX_7type_idCs6Pvmk8MDi9B_3std, symObjAddr: 0x2FA9C, symBinAddr: 0x10004E7E0, symSize: 0x14 }
  - { offset: 0xE157A, size: 0x8, addend: 0x0, symName: __RNvYNtNvXsf_NtNtCscanHOTX2pz9_5alloc5boxed7convertINtBc_3BoxDNtNtCs4jSjb1l5x4F_4core5error5ErrorNtNtB11_6marker4SendNtB1y_4SyncEL_EINtNtB11_7convert4FromNtNtBe_6string6StringE4from11StringErrorBX_7type_idCs6Pvmk8MDi9B_3std, symObjAddr: 0x2FA9C, symBinAddr: 0x10004E7E0, symSize: 0x14 }
  - { offset: 0xE158C, size: 0x8, addend: 0x0, symName: __RNvYNtNvXsf_NtNtCscanHOTX2pz9_5alloc5boxed7convertINtBc_3BoxDNtNtCs4jSjb1l5x4F_4core5error5ErrorNtNtB11_6marker4SendNtB1y_4SyncEL_EINtNtB11_7convert4FromNtNtBe_6string6StringE4from11StringErrorBX_11descriptionCs6Pvmk8MDi9B_3std, symObjAddr: 0x2FAB0, symBinAddr: 0x10004E7F4, symSize: 0x10 }
  - { offset: 0xE15A6, size: 0x8, addend: 0x0, symName: __RNvYNtNvXsf_NtNtCscanHOTX2pz9_5alloc5boxed7convertINtBc_3BoxDNtNtCs4jSjb1l5x4F_4core5error5ErrorNtNtB11_6marker4SendNtB1y_4SyncEL_EINtNtB11_7convert4FromNtNtBe_6string6StringE4from11StringErrorBX_5causeCs6Pvmk8MDi9B_3std, symObjAddr: 0x2FAC0, symBinAddr: 0x10004E804, symSize: 0x8 }
  - { offset: 0xE15C0, size: 0x8, addend: 0x0, symName: __RNvYNtNvXsf_NtNtCscanHOTX2pz9_5alloc5boxed7convertINtBc_3BoxDNtNtCs4jSjb1l5x4F_4core5error5ErrorNtNtB11_6marker4SendNtB1y_4SyncEL_EINtNtB11_7convert4FromNtNtBe_6string6StringE4from11StringErrorBX_7provideCs6Pvmk8MDi9B_3std, symObjAddr: 0x2FAC8, symBinAddr: 0x10004E80C, symSize: 0x4 }
  - { offset: 0xE16FE, size: 0x8, addend: 0x0, symName: __RNvMsn_NtCscanHOTX2pz9_5alloc4syncINtB5_3ArcNtNtNtCs6Pvmk8MDi9B_3std6thread6thread5InnerNtNtBM_5alloc6SystemE9drop_slowBM_, symObjAddr: 0x10018, symBinAddr: 0x10002ED5C, symSize: 0x70 }
  - { offset: 0xE19B6, size: 0x8, addend: 0x0, symName: __RNvMsn_NtCscanHOTX2pz9_5alloc4syncINtB5_3ArcNtNtNtNtCs6Pvmk8MDi9B_3std3sys2fs4unix12InnerReadDirE9drop_slowBO_, symObjAddr: 0x188B4, symBinAddr: 0x1000375F8, symSize: 0xB0 }
  - { offset: 0xE1EC0, size: 0x8, addend: 0x0, symName: __RNvMsn_NtCscanHOTX2pz9_5alloc4syncINtB5_3ArcINtNtNtCsiM5UA4RzYIa_5gimli4read5dwarf5DwarfINtNtBL_12endian_slice11EndianSliceNtNtBN_9endianity12LittleEndianEEE9drop_slowCs6Pvmk8MDi9B_3std, symObjAddr: 0x1D904, symBinAddr: 0x10003C648, symSize: 0xCC }
  - { offset: 0xE21BF, size: 0x8, addend: 0x0, symName: __RNvMsn_NtCscanHOTX2pz9_5alloc4syncINtB5_3ArcNtNtNtCsiM5UA4RzYIa_5gimli4read6abbrev13AbbreviationsE9drop_slowCs6Pvmk8MDi9B_3std, symObjAddr: 0x25A54, symBinAddr: 0x100044798, symSize: 0x90 }
  - { offset: 0xE249B, size: 0x8, addend: 0x0, symName: __RNvMsn_NtCscanHOTX2pz9_5alloc4syncINtB5_3ArcINtNtNtCs4jSjb1l5x4F_4core3mem12maybe_uninit11MaybeUninitNtNtNtCs6Pvmk8MDi9B_3std6thread6thread5InnerENtNtB1H_5alloc6SystemE9drop_slowB1H_, symObjAddr: 0x323F4, symBinAddr: 0x100051138, symSize: 0x2C }
  - { offset: 0xE24BA, size: 0x8, addend: 0x0, symName: __RNvMsn_NtCscanHOTX2pz9_5alloc4syncINtB5_3ArcINtNtNtCs4jSjb1l5x4F_4core3mem12maybe_uninit11MaybeUninitNtNtNtCs6Pvmk8MDi9B_3std6thread6thread5InnerENtNtB1H_5alloc6SystemE9drop_slowB1H_, symObjAddr: 0x323F4, symBinAddr: 0x100051138, symSize: 0x2C }
  - { offset: 0xE24D0, size: 0x8, addend: 0x0, symName: __RNvMsn_NtCscanHOTX2pz9_5alloc4syncINtB5_3ArcINtNtNtCs4jSjb1l5x4F_4core3mem12maybe_uninit11MaybeUninitNtNtNtCs6Pvmk8MDi9B_3std6thread6thread5InnerENtNtB1H_5alloc6SystemE9drop_slowB1H_, symObjAddr: 0x323F4, symBinAddr: 0x100051138, symSize: 0x2C }
  - { offset: 0xE24E6, size: 0x8, addend: 0x0, symName: __RNvMsn_NtCscanHOTX2pz9_5alloc4syncINtB5_3ArcINtNtNtCs4jSjb1l5x4F_4core3mem12maybe_uninit11MaybeUninitNtNtNtCs6Pvmk8MDi9B_3std6thread6thread5InnerENtNtB1H_5alloc6SystemE9drop_slowB1H_, symObjAddr: 0x323F4, symBinAddr: 0x100051138, symSize: 0x2C }
  - { offset: 0xE25AA, size: 0x8, addend: 0x0, symName: __RNvMsn_NtCscanHOTX2pz9_5alloc4syncINtB5_3ArcNtNtNtCs6Pvmk8MDi9B_3std6thread9spawnhook9SpawnHookE9drop_slowBM_, symObjAddr: 0x33DA0, symBinAddr: 0x100052AE4, symSize: 0x128 }
  - { offset: 0xE2FAD, size: 0x8, addend: 0x0, symName: __RNvMs4_NtCscanHOTX2pz9_5alloc7raw_vecNtB5_11RawVecInner11finish_growCs6Pvmk8MDi9B_3std, symObjAddr: 0x10810, symBinAddr: 0x10002F554, symSize: 0x134 }
  - { offset: 0xE3931, size: 0x8, addend: 0x0, symName: __RNvMs4_NtCscanHOTX2pz9_5alloc7raw_vecINtB5_11RawVecInnerNtNtCs6Pvmk8MDi9B_3std5alloc6SystemE14grow_amortizedBW_, symObjAddr: 0x318A0, symBinAddr: 0x1000505E4, symSize: 0x70 }
  - { offset: 0xE39F0, size: 0x8, addend: 0x0, symName: __RNvMs4_NtCscanHOTX2pz9_5alloc7raw_vecINtB5_11RawVecInnerNtNtCs6Pvmk8MDi9B_3std5alloc6SystemE11finish_growBW_, symObjAddr: 0x31910, symBinAddr: 0x100050654, symSize: 0x88 }
  - { offset: 0xE3C8F, size: 0x8, addend: 0x0, symName: __RNvMs3_NtCscanHOTX2pz9_5alloc7raw_vecINtB5_6RawVecNtNtNtNtCs6Pvmk8MDi9B_3std12backtrace_rs9symbolize5gimli14LibrarySegmentE8grow_oneBU_, symObjAddr: 0x14E44, symBinAddr: 0x100033B88, symSize: 0x68 }
  - { offset: 0xE3F60, size: 0x8, addend: 0x0, symName: __RNvMs3_NtCscanHOTX2pz9_5alloc7raw_vecINtB5_6RawVecINtNtNtCsiM5UA4RzYIa_5gimli4read4line9FileEntryINtNtBR_12endian_slice11EndianSliceNtNtBT_9endianity12LittleEndianEjEE8grow_oneCs6Pvmk8MDi9B_3std, symObjAddr: 0x1B91C, symBinAddr: 0x10003A660, symSize: 0x68 }
  - { offset: 0xE40C7, size: 0x8, addend: 0x0, symName: __RNvMs3_NtCscanHOTX2pz9_5alloc7raw_vecINtB5_6RawVecINtNtCslD6GJiPj7gM_9addr2line8function15InlinedFunctionINtNtNtCsiM5UA4RzYIa_5gimli4read12endian_slice11EndianSliceNtNtB1M_9endianity12LittleEndianEEE8grow_oneCs6Pvmk8MDi9B_3std, symObjAddr: 0x2387C, symBinAddr: 0x1000425C0, symSize: 0x68 }
  - { offset: 0xE415D, size: 0x8, addend: 0x0, symName: __RNvMs3_NtCscanHOTX2pz9_5alloc7raw_vecINtB5_6RawVecINtNtCslD6GJiPj7gM_9addr2line8function12LazyFunctionINtNtNtCsiM5UA4RzYIa_5gimli4read12endian_slice11EndianSliceNtNtB1J_9endianity12LittleEndianEEE8grow_oneCs6Pvmk8MDi9B_3std, symObjAddr: 0x247DC, symBinAddr: 0x100043520, symSize: 0x68 }
  - { offset: 0xE41E6, size: 0x8, addend: 0x0, symName: __RNvMs3_NtCscanHOTX2pz9_5alloc7raw_vecINtB5_6RawVecRINtNtCslD6GJiPj7gM_9addr2line8function15InlinedFunctionINtNtNtCsiM5UA4RzYIa_5gimli4read12endian_slice11EndianSliceNtNtB1N_9endianity12LittleEndianEEE8grow_oneCs6Pvmk8MDi9B_3std, symObjAddr: 0x2600C, symBinAddr: 0x100044D50, symSize: 0x68 }
  - { offset: 0xE42A5, size: 0x8, addend: 0x0, symName: __RNvMs3_NtCscanHOTX2pz9_5alloc7raw_vecINtB5_6RawVecINtNtCslD6GJiPj7gM_9addr2line4unit7ResUnitINtNtNtCsiM5UA4RzYIa_5gimli4read12endian_slice11EndianSliceNtNtB1z_9endianity12LittleEndianEEE8grow_oneCs6Pvmk8MDi9B_3std, symObjAddr: 0x291B4, symBinAddr: 0x100047EF8, symSize: 0x68 }
  - { offset: 0xE432E, size: 0x8, addend: 0x0, symName: __RNvMs3_NtCscanHOTX2pz9_5alloc7raw_vecINtB5_6RawVecINtNtCslD6GJiPj7gM_9addr2line4unit7SupUnitINtNtNtCsiM5UA4RzYIa_5gimli4read12endian_slice11EndianSliceNtNtB1z_9endianity12LittleEndianEEE8grow_oneCs6Pvmk8MDi9B_3std, symObjAddr: 0x2940C, symBinAddr: 0x100048150, symSize: 0x68 }
  - { offset: 0xE43E0, size: 0x8, addend: 0x0, symName: __RNvMs3_NtCscanHOTX2pz9_5alloc7raw_vecINtB5_6RawVecINtNtNtCsiM5UA4RzYIa_5gimli4read4unit14AttributeValueINtNtBR_12endian_slice11EndianSliceNtNtBT_9endianity12LittleEndianEjEE8grow_oneCs6Pvmk8MDi9B_3std, symObjAddr: 0x2A030, symBinAddr: 0x100048D74, symSize: 0x68 }
  - { offset: 0xE4469, size: 0x8, addend: 0x0, symName: __RNvMs3_NtCscanHOTX2pz9_5alloc7raw_vecINtB5_6RawVecNtNtNtCsiM5UA4RzYIa_5gimli4read4line15FileEntryFormatE8grow_oneCs6Pvmk8MDi9B_3std, symObjAddr: 0x2ACC4, symBinAddr: 0x100049A08, symSize: 0x68 }
  - { offset: 0xE44F2, size: 0x8, addend: 0x0, symName: __RNvMs3_NtCscanHOTX2pz9_5alloc7raw_vecINtB5_6RawVecNtNtCs7v9VnJwQi6H_6object4read13ObjectMapFileE8grow_oneCs6Pvmk8MDi9B_3std, symObjAddr: 0x2CD54, symBinAddr: 0x10004BA98, symSize: 0x68 }
  - { offset: 0xE457B, size: 0x8, addend: 0x0, symName: __RNvMs3_NtCscanHOTX2pz9_5alloc7raw_vecINtB5_6RawVecNtNtCs7v9VnJwQi6H_6object4read14ObjectMapEntryE8grow_oneCs6Pvmk8MDi9B_3std, symObjAddr: 0x2CDBC, symBinAddr: 0x10004BB00, symSize: 0x68 }
  - { offset: 0xE463B, size: 0x8, addend: 0x0, symName: __RNvMs3_NtCscanHOTX2pz9_5alloc7raw_vecINtB5_6RawVecTOhFUKCBN_EuENtNtCs6Pvmk8MDi9B_3std5alloc6SystemE8grow_oneB13_, symObjAddr: 0x3187C, symBinAddr: 0x1000505C0, symSize: 0x24 }
  - { offset: 0xE486D, size: 0x8, addend: 0x0, symName: __RINvNvMs2_NtCscanHOTX2pz9_5alloc7raw_vecINtB8_11RawVecInnerpE7reserve21do_reserve_and_handleNtNtBa_5alloc6GlobalECs6Pvmk8MDi9B_3std, symObjAddr: 0x106E8, symBinAddr: 0x10002F42C, symSize: 0x8C }
  - { offset: 0xE5948, size: 0x8, addend: 0x0, symName: __RNvXsq_NtCscanHOTX2pz9_5alloc6stringNtB5_6StringNtNtCs4jSjb1l5x4F_4core3fmt7Display3fmt, symObjAddr: 0x10CA8, symBinAddr: 0x10002F9EC, symSize: 0x10 }
  - { offset: 0xE5A60, size: 0x8, addend: 0x0, symName: __RNvXsZ_NtCscanHOTX2pz9_5alloc6stringNtB5_6StringNtNtCs4jSjb1l5x4F_4core3fmt5Write9write_str.241, symObjAddr: 0x32FC0, symBinAddr: 0x100051D04, symSize: 0x84 }
  - { offset: 0xE5BC4, size: 0x8, addend: 0x0, symName: __RNvXsZ_NtCscanHOTX2pz9_5alloc6stringNtB5_6StringNtNtCs4jSjb1l5x4F_4core3fmt5Write10write_char.242, symObjAddr: 0x33044, symBinAddr: 0x100051D88, symSize: 0x118 }
  - { offset: 0xE5DE5, size: 0x8, addend: 0x0, symName: __RNvXsX_NtNtCscanHOTX2pz9_5alloc3ffi5c_strNtB5_8NulErrorNtNtCs4jSjb1l5x4F_4core3fmt5Debug3fmt, symObjAddr: 0x32434, symBinAddr: 0x100051178, symSize: 0x1C0 }
  - { offset: 0xE6585, size: 0x8, addend: 0x0, symName: __RNvMsz_NtNtNtCscanHOTX2pz9_5alloc11collections5btree3mapINtB5_8IntoIteryINtNtCs4jSjb1l5x4F_4core6result6ResultINtNtBb_4sync3ArcNtNtNtCsiM5UA4RzYIa_5gimli4read6abbrev13AbbreviationsENtB25_5ErrorEE10dying_nextCs6Pvmk8MDi9B_3std, symObjAddr: 0x25E10, symBinAddr: 0x100044B54, symSize: 0x188 }
  - { offset: 0xE73DB, size: 0x8, addend: 0x0, symName: __RINvMs0_NtNtCs7v9VnJwQi6H_6object4read7archiveNtB6_13ArchiveMember5parseRShECs6Pvmk8MDi9B_3std, symObjAddr: 0x192BC, symBinAddr: 0x100038000, symSize: 0xB74 }
  - { offset: 0xE89BD, size: 0x8, addend: 0x0, symName: __RNvMs0_NtNtCsiM5UA4RzYIa_5gimli4read5dwarfINtB5_5DwarfINtNtB7_12endian_slice11EndianSliceNtNtB9_9endianity12LittleEndianEE11attr_stringCs6Pvmk8MDi9B_3std, symObjAddr: 0x1C2A8, symBinAddr: 0x10003AFEC, symSize: 0x220 }
  - { offset: 0xE9113, size: 0x8, addend: 0x0, symName: __RNvMs4_NtNtCsiM5UA4RzYIa_5gimli4read5dwarfINtB5_4UnitINtNtB7_12endian_slice11EndianSliceNtNtB9_9endianity12LittleEndianEjE3newCs6Pvmk8MDi9B_3std, symObjAddr: 0x27798, symBinAddr: 0x1000464DC, symSize: 0x1A1C }
  - { offset: 0xECE2C, size: 0x8, addend: 0x0, symName: __RNvMs4_NtNtCsiM5UA4RzYIa_5gimli4read7arangesINtB5_12ArangeHeaderINtNtB7_12endian_slice11EndianSliceNtNtB9_9endianity12LittleEndianEjE5parseCs6Pvmk8MDi9B_3std, symObjAddr: 0x26EA0, symBinAddr: 0x100045BE4, symSize: 0x2BC }
  - { offset: 0xECE57, size: 0x8, addend: 0x0, symName: __RNvMs4_NtNtCsiM5UA4RzYIa_5gimli4read7arangesINtB5_12ArangeHeaderINtNtB7_12endian_slice11EndianSliceNtNtB9_9endianity12LittleEndianEjE5parseCs6Pvmk8MDi9B_3std, symObjAddr: 0x26EA0, symBinAddr: 0x100045BE4, symSize: 0x2BC }
  - { offset: 0xECE6D, size: 0x8, addend: 0x0, symName: __RNvMs4_NtNtCsiM5UA4RzYIa_5gimli4read7arangesINtB5_12ArangeHeaderINtNtB7_12endian_slice11EndianSliceNtNtB9_9endianity12LittleEndianEjE5parseCs6Pvmk8MDi9B_3std, symObjAddr: 0x26EA0, symBinAddr: 0x100045BE4, symSize: 0x2BC }
  - { offset: 0xECE83, size: 0x8, addend: 0x0, symName: __RNvMs4_NtNtCsiM5UA4RzYIa_5gimli4read7arangesINtB5_12ArangeHeaderINtNtB7_12endian_slice11EndianSliceNtNtB9_9endianity12LittleEndianEjE5parseCs6Pvmk8MDi9B_3std, symObjAddr: 0x26EA0, symBinAddr: 0x100045BE4, symSize: 0x2BC }
  - { offset: 0xED805, size: 0x8, addend: 0x0, symName: __RNvMsb_NtNtCsiM5UA4RzYIa_5gimli4read4unitINtB5_9AttributeINtNtB7_12endian_slice11EndianSliceNtNtB9_9endianity12LittleEndianEE5valueCs6Pvmk8MDi9B_3std, symObjAddr: 0x21288, symBinAddr: 0x10003FFCC, symSize: 0x808 }
  - { offset: 0xEDED0, size: 0x8, addend: 0x0, symName: __RNvMsf_NtNtCsiM5UA4RzYIa_5gimli4read4unitINtB5_13EntriesCursorINtNtB7_12endian_slice11EndianSliceNtNtB9_9endianity12LittleEndianEE10next_entryCs6Pvmk8MDi9B_3std, symObjAddr: 0x26074, symBinAddr: 0x100044DB8, symSize: 0x2F4 }
  - { offset: 0xEE575, size: 0x8, addend: 0x0, symName: __RINvNtNtCsiM5UA4RzYIa_5gimli4read4unit15parse_attributeINtNtB4_12endian_slice11EndianSliceNtNtB6_9endianity12LittleEndianEECs6Pvmk8MDi9B_3std, symObjAddr: 0x1F0C4, symBinAddr: 0x10003DE08, symSize: 0xED0 }
  - { offset: 0xF0ECB, size: 0x8, addend: 0x0, symName: __RNvMsc_NtNtCsiM5UA4RzYIa_5gimli4read4unitINtB5_14AttributeValueINtNtB7_12endian_slice11EndianSliceNtNtB9_9endianity12LittleEndianEjE8u8_valueCs6Pvmk8MDi9B_3std, symObjAddr: 0x23260, symBinAddr: 0x100041FA4, symSize: 0x94 }
  - { offset: 0xF0F03, size: 0x8, addend: 0x0, symName: __RNvMsc_NtNtCsiM5UA4RzYIa_5gimli4read4unitINtB5_14AttributeValueINtNtB7_12endian_slice11EndianSliceNtNtB9_9endianity12LittleEndianEjE9u16_valueCs6Pvmk8MDi9B_3std, symObjAddr: 0x232F4, symBinAddr: 0x100042038, symSize: 0x94 }
  - { offset: 0xF0F3C, size: 0x8, addend: 0x0, symName: __RINvNtNtCsiM5UA4RzYIa_5gimli4read4unit15skip_attributesINtNtB4_12endian_slice11EndianSliceNtNtB6_9endianity12LittleEndianEECs6Pvmk8MDi9B_3std, symObjAddr: 0x23388, symBinAddr: 0x1000420CC, symSize: 0x4F4 }
  - { offset: 0xF1825, size: 0x8, addend: 0x0, symName: __RNvMs6_NtNtCsiM5UA4RzYIa_5gimli4read4unitINtB5_24DebugInfoUnitHeadersIterINtNtB7_12endian_slice11EndianSliceNtNtB9_9endianity12LittleEndianEE4nextCs6Pvmk8MDi9B_3std, symObjAddr: 0x27260, symBinAddr: 0x100045FA4, symSize: 0x434 }
  - { offset: 0xF2968, size: 0x8, addend: 0x0, symName: __RNvYINtNtNtCsiM5UA4RzYIa_5gimli4read12endian_slice11EndianSliceNtNtB9_9endianity12LittleEndianENtNtB7_6reader6Reader12read_sleb128Cs6Pvmk8MDi9B_3std, symObjAddr: 0x1B6E0, symBinAddr: 0x10003A424, symSize: 0x23C }
  - { offset: 0xF2A6A, size: 0x8, addend: 0x0, symName: __RNvYINtNtNtCsiM5UA4RzYIa_5gimli4read12endian_slice11EndianSliceNtNtB9_9endianity12LittleEndianENtNtB7_6reader6Reader17read_sized_offsetCs6Pvmk8MDi9B_3std, symObjAddr: 0x24524, symBinAddr: 0x100043268, symSize: 0x120 }
  - { offset: 0xF2DD8, size: 0x8, addend: 0x0, symName: __RNvYINtNtNtCsiM5UA4RzYIa_5gimli4read12endian_slice11EndianSliceNtNtB9_9endianity12LittleEndianENtNtB7_6reader6Reader11read_offsetCs6Pvmk8MDi9B_3std, symObjAddr: 0x24644, symBinAddr: 0x100043388, symSize: 0x88 }
  - { offset: 0xF302C, size: 0x8, addend: 0x0, symName: __RNvYINtNtNtCsiM5UA4RzYIa_5gimli4read12endian_slice11EndianSliceNtNtB9_9endianity12LittleEndianENtNtB7_6reader6Reader12read_uleb128Cs6Pvmk8MDi9B_3std, symObjAddr: 0x29EA0, symBinAddr: 0x100048BE4, symSize: 0xAC }
  - { offset: 0xF33F9, size: 0x8, addend: 0x0, symName: __RNvMsc_NtNtCsiM5UA4RzYIa_5gimli4read8rnglistsINtB5_11RngListIterINtNtB7_12endian_slice11EndianSliceNtNtB9_9endianity12LittleEndianEE4nextCs6Pvmk8MDi9B_3std, symObjAddr: 0x238E4, symBinAddr: 0x100042628, symSize: 0xC40 }
  - { offset: 0xF5CE3, size: 0x8, addend: 0x0, symName: __RNvMs8_NtNtCsiM5UA4RzYIa_5gimli4read5indexINtB5_9UnitIndexINtNtB7_12endian_slice11EndianSliceNtNtB9_9endianity12LittleEndianEE5parseCs6Pvmk8MDi9B_3std, symObjAddr: 0x29474, symBinAddr: 0x1000481B8, symSize: 0x6DC }
  - { offset: 0xF6393, size: 0x8, addend: 0x0, symName: __RNvMsd_NtNtCsiM5UA4RzYIa_5gimli4read4lineINtB5_9FileEntryINtNtB7_12endian_slice11EndianSliceNtNtB9_9endianity12LittleEndianEjE5parseCs6Pvmk8MDi9B_3std, symObjAddr: 0x2A340, symBinAddr: 0x100049084, symSize: 0x1E8 }
  - { offset: 0xF669E, size: 0x8, addend: 0x0, symName: __RNvXs11_NtNtCsiM5UA4RzYIa_5gimli4read4lineINtB6_9FileEntryINtNtB8_12endian_slice11EndianSliceNtNtBa_9endianity12LittleEndianEjENtNtCs4jSjb1l5x4F_4core5clone5Clone5cloneCs6Pvmk8MDi9B_3std, symObjAddr: 0x1B50C, symBinAddr: 0x10003A250, symSize: 0x1D4 }
  - { offset: 0xF671C, size: 0x8, addend: 0x0, symName: __RINvMse_NtNtCsiM5UA4RzYIa_5gimli4read4lineNtB6_15FileEntryFormat5parseINtNtB8_12endian_slice11EndianSliceNtNtBa_9endianity12LittleEndianEECs6Pvmk8MDi9B_3std, symObjAddr: 0x29BC4, symBinAddr: 0x100048908, symSize: 0x2DC }
  - { offset: 0xF6F27, size: 0x8, addend: 0x0, symName: __RINvNtNtCsiM5UA4RzYIa_5gimli4read4line18parse_directory_v5INtNtB4_12endian_slice11EndianSliceNtNtB6_9endianity12LittleEndianEECs6Pvmk8MDi9B_3std, symObjAddr: 0x29F4C, symBinAddr: 0x100048C90, symSize: 0xE4 }
  - { offset: 0xF6FB9, size: 0x8, addend: 0x0, symName: __RINvNtNtCsiM5UA4RzYIa_5gimli4read4line13parse_file_v5INtNtB4_12endian_slice11EndianSliceNtNtB6_9endianity12LittleEndianEECs6Pvmk8MDi9B_3std, symObjAddr: 0x2A098, symBinAddr: 0x100048DDC, symSize: 0x2A8 }
  - { offset: 0xF715A, size: 0x8, addend: 0x0, symName: __RINvNtNtCsiM5UA4RzYIa_5gimli4read4line15parse_attributeINtNtB4_12endian_slice11EndianSliceNtNtB6_9endianity12LittleEndianEECs6Pvmk8MDi9B_3std, symObjAddr: 0x2A528, symBinAddr: 0x10004926C, symSize: 0x79C }
  - { offset: 0xF8ACF, size: 0x8, addend: 0x0, symName: __RNCNvMNtCslD6GJiPj7gM_9addr2line4unitINtB4_7ResUnitINtNtNtCsiM5UA4RzYIa_5gimli4read12endian_slice11EndianSliceNtNtBU_9endianity12LittleEndianEE25find_function_or_location0Cs6Pvmk8MDi9B_3std, symObjAddr: 0x1DA18, symBinAddr: 0x10003C75C, symSize: 0x424 }
  - { offset: 0xF8E75, size: 0x8, addend: 0x0, symName: __RNvMNtCslD6GJiPj7gM_9addr2line4unitINtB2_7ResUnitINtNtNtCsiM5UA4RzYIa_5gimli4read12endian_slice11EndianSliceNtNtBS_9endianity12LittleEndianEE25find_function_or_locationCs6Pvmk8MDi9B_3std, symObjAddr: 0x1D120, symBinAddr: 0x10003BE64, symSize: 0x3A8 }
  - { offset: 0xF943B, size: 0x8, addend: 0x0, symName: __RINvNtCslD6GJiPj7gM_9addr2line4line11render_fileINtNtNtCsiM5UA4RzYIa_5gimli4read12endian_slice11EndianSliceNtNtBR_9endianity12LittleEndianEECs6Pvmk8MDi9B_3std, symObjAddr: 0x1BCDC, symBinAddr: 0x10003AA20, symSize: 0x468 }
  - { offset: 0xF9F52, size: 0x8, addend: 0x0, symName: __RNvMs2_NtCslD6GJiPj7gM_9addr2line6lookupINtB5_13LoopingLookupINtNtCs4jSjb1l5x4F_4core6result6ResultINtNtB7_5frame9FrameIterINtNtNtCsiM5UA4RzYIa_5gimli4read12endian_slice11EndianSliceNtNtB24_9endianity12LittleEndianEENtB22_5ErrorEINtB5_12MappedLookupIBY_TINtNtB12_6option6OptionRINtNtB7_8function8FunctionB1X_EEIB45_NtB1C_8LocationEEB3s_EINtB5_12SimpleLookupIBY_TNtB7_9DebugFileINtNtB22_5dwarf7UnitRefB1X_EEB3s_EB1X_NCNvMNtB7_4unitINtB6K_7ResUnitB1X_E14dwarf_and_units4_0ENCNvB6J_25find_function_or_location0ENCNvMs_B7_INtB7_7ContextB1X_E11find_frames0E10new_lookupCs6Pvmk8MDi9B_3std, symObjAddr: 0x1D4C8, symBinAddr: 0x10003C20C, symSize: 0x43C }
  - { offset: 0xFA53A, size: 0x8, addend: 0x0, symName: __RNvMNtCslD6GJiPj7gM_9addr2line5frameINtB2_9FrameIterINtNtNtCsiM5UA4RzYIa_5gimli4read12endian_slice11EndianSliceNtNtBV_9endianity12LittleEndianEE4nextCs6Pvmk8MDi9B_3std, symObjAddr: 0x19004, symBinAddr: 0x100037D48, symSize: 0x2B8 }
  - { offset: 0xFABF2, size: 0x8, addend: 0x0, symName: __RNvMs1_NtCslD6GJiPj7gM_9addr2line8functionINtB5_8FunctionINtNtNtCsiM5UA4RzYIa_5gimli4read12endian_slice11EndianSliceNtNtB10_9endianity12LittleEndianEE14parse_childrenCs6Pvmk8MDi9B_3std, symObjAddr: 0x1FF94, symBinAddr: 0x10003ECD8, symSize: 0x12F4 }
  - { offset: 0xFC5AD, size: 0x8, addend: 0x0, symName: __RINvNtCslD6GJiPj7gM_9addr2line8function9name_attrINtNtNtCsiM5UA4RzYIa_5gimli4read12endian_slice11EndianSliceNtNtBS_9endianity12LittleEndianEECs6Pvmk8MDi9B_3std, symObjAddr: 0x21A90, symBinAddr: 0x1000407D4, symSize: 0x284 }
  - { offset: 0xFC9C5, size: 0x8, addend: 0x0, symName: __RINvNtCslD6GJiPj7gM_9addr2line8function10name_entryINtNtNtCsiM5UA4RzYIa_5gimli4read12endian_slice11EndianSliceNtNtBU_9endianity12LittleEndianEECs6Pvmk8MDi9B_3std, symObjAddr: 0x22EA0, symBinAddr: 0x100041BE4, symSize: 0x3C0 }
  - { offset: 0xFCED9, size: 0x8, addend: 0x0, symName: _OUTLINED_FUNCTION_0, symObjAddr: 0x3480C, symBinAddr: 0x100053550, symSize: 0xC }
  - { offset: 0xFCEF1, size: 0x8, addend: 0x0, symName: _OUTLINED_FUNCTION_1, symObjAddr: 0x34818, symBinAddr: 0x10005355C, symSize: 0xC }
  - { offset: 0xFCF09, size: 0x8, addend: 0x0, symName: _OUTLINED_FUNCTION_2, symObjAddr: 0x34824, symBinAddr: 0x100053568, symSize: 0xC }
  - { offset: 0xFCF21, size: 0x8, addend: 0x0, symName: _OUTLINED_FUNCTION_3, symObjAddr: 0x34830, symBinAddr: 0x100053574, symSize: 0xC }
  - { offset: 0xFCF39, size: 0x8, addend: 0x0, symName: _OUTLINED_FUNCTION_4, symObjAddr: 0x3483C, symBinAddr: 0x100053580, symSize: 0xC }
  - { offset: 0xFCF51, size: 0x8, addend: 0x0, symName: _OUTLINED_FUNCTION_5, symObjAddr: 0x34848, symBinAddr: 0x10005358C, symSize: 0xC }
  - { offset: 0xFCF69, size: 0x8, addend: 0x0, symName: _OUTLINED_FUNCTION_6, symObjAddr: 0x34854, symBinAddr: 0x100053598, symSize: 0x8 }
  - { offset: 0xFCF81, size: 0x8, addend: 0x0, symName: _OUTLINED_FUNCTION_7, symObjAddr: 0x3485C, symBinAddr: 0x1000535A0, symSize: 0x8 }
  - { offset: 0xFCF99, size: 0x8, addend: 0x0, symName: _OUTLINED_FUNCTION_8, symObjAddr: 0x34864, symBinAddr: 0x1000535A8, symSize: 0x24 }
  - { offset: 0xFCFB1, size: 0x8, addend: 0x0, symName: _OUTLINED_FUNCTION_9, symObjAddr: 0x34888, symBinAddr: 0x1000535CC, symSize: 0x8 }
  - { offset: 0xFCFC9, size: 0x8, addend: 0x0, symName: _OUTLINED_FUNCTION_10, symObjAddr: 0x34890, symBinAddr: 0x1000535D4, symSize: 0x8 }
  - { offset: 0xFCFE1, size: 0x8, addend: 0x0, symName: _OUTLINED_FUNCTION_11, symObjAddr: 0x34898, symBinAddr: 0x1000535DC, symSize: 0x8 }
  - { offset: 0xFCFF9, size: 0x8, addend: 0x0, symName: _OUTLINED_FUNCTION_13, symObjAddr: 0x348B0, symBinAddr: 0x1000535F4, symSize: 0x8 }
  - { offset: 0xFD011, size: 0x8, addend: 0x0, symName: _OUTLINED_FUNCTION_14, symObjAddr: 0x348B8, symBinAddr: 0x1000535FC, symSize: 0x8 }
  - { offset: 0xFD029, size: 0x8, addend: 0x0, symName: _OUTLINED_FUNCTION_15, symObjAddr: 0x348C0, symBinAddr: 0x100053604, symSize: 0x8 }
  - { offset: 0xFD041, size: 0x8, addend: 0x0, symName: _OUTLINED_FUNCTION_16, symObjAddr: 0x348C8, symBinAddr: 0x10005360C, symSize: 0x10 }
  - { offset: 0xFD059, size: 0x8, addend: 0x0, symName: _OUTLINED_FUNCTION_17, symObjAddr: 0x348D8, symBinAddr: 0x10005361C, symSize: 0x10 }
  - { offset: 0xFD071, size: 0x8, addend: 0x0, symName: _OUTLINED_FUNCTION_18, symObjAddr: 0x348E8, symBinAddr: 0x10005362C, symSize: 0x10 }
  - { offset: 0xFD089, size: 0x8, addend: 0x0, symName: _OUTLINED_FUNCTION_19, symObjAddr: 0x348F8, symBinAddr: 0x10005363C, symSize: 0x10 }
  - { offset: 0xFD0A1, size: 0x8, addend: 0x0, symName: _OUTLINED_FUNCTION_20, symObjAddr: 0x34908, symBinAddr: 0x10005364C, symSize: 0x18 }
  - { offset: 0xFD0B9, size: 0x8, addend: 0x0, symName: _OUTLINED_FUNCTION_21, symObjAddr: 0x34920, symBinAddr: 0x100053664, symSize: 0x18 }
  - { offset: 0xFD0D1, size: 0x8, addend: 0x0, symName: _OUTLINED_FUNCTION_22, symObjAddr: 0x34938, symBinAddr: 0x10005367C, symSize: 0x18 }
  - { offset: 0xFD0E9, size: 0x8, addend: 0x0, symName: _OUTLINED_FUNCTION_23, symObjAddr: 0x34950, symBinAddr: 0x100053694, symSize: 0xC }
  - { offset: 0xFD101, size: 0x8, addend: 0x0, symName: _OUTLINED_FUNCTION_24, symObjAddr: 0x3495C, symBinAddr: 0x1000536A0, symSize: 0xC }
  - { offset: 0xFD119, size: 0x8, addend: 0x0, symName: _OUTLINED_FUNCTION_25, symObjAddr: 0x34968, symBinAddr: 0x1000536AC, symSize: 0x8 }
  - { offset: 0xFD131, size: 0x8, addend: 0x0, symName: _OUTLINED_FUNCTION_26, symObjAddr: 0x34970, symBinAddr: 0x1000536B4, symSize: 0xC }
  - { offset: 0xFD149, size: 0x8, addend: 0x0, symName: _OUTLINED_FUNCTION_27, symObjAddr: 0x3497C, symBinAddr: 0x1000536C0, symSize: 0xC }
  - { offset: 0xFD161, size: 0x8, addend: 0x0, symName: _OUTLINED_FUNCTION_28, symObjAddr: 0x34988, symBinAddr: 0x1000536CC, symSize: 0xC }
  - { offset: 0xFD179, size: 0x8, addend: 0x0, symName: _OUTLINED_FUNCTION_29, symObjAddr: 0x34994, symBinAddr: 0x1000536D8, symSize: 0xC }
  - { offset: 0xFD191, size: 0x8, addend: 0x0, symName: _OUTLINED_FUNCTION_30, symObjAddr: 0x349A0, symBinAddr: 0x1000536E4, symSize: 0xC }
  - { offset: 0xFD1A9, size: 0x8, addend: 0x0, symName: _OUTLINED_FUNCTION_31, symObjAddr: 0x349AC, symBinAddr: 0x1000536F0, symSize: 0x8 }
  - { offset: 0xFD1C1, size: 0x8, addend: 0x0, symName: _OUTLINED_FUNCTION_32, symObjAddr: 0x349B4, symBinAddr: 0x1000536F8, symSize: 0xC }
  - { offset: 0xFD1D9, size: 0x8, addend: 0x0, symName: _OUTLINED_FUNCTION_33, symObjAddr: 0x349C0, symBinAddr: 0x100053704, symSize: 0x8 }
  - { offset: 0xFD1F1, size: 0x8, addend: 0x0, symName: _OUTLINED_FUNCTION_34, symObjAddr: 0x349C8, symBinAddr: 0x10005370C, symSize: 0x8 }
  - { offset: 0xFD209, size: 0x8, addend: 0x0, symName: _OUTLINED_FUNCTION_35, symObjAddr: 0x349D0, symBinAddr: 0x100053714, symSize: 0xC }
  - { offset: 0xFD221, size: 0x8, addend: 0x0, symName: _OUTLINED_FUNCTION_36, symObjAddr: 0x349DC, symBinAddr: 0x100053720, symSize: 0x14 }
  - { offset: 0xFD239, size: 0x8, addend: 0x0, symName: _OUTLINED_FUNCTION_37, symObjAddr: 0x349F0, symBinAddr: 0x100053734, symSize: 0x14 }
  - { offset: 0xFD251, size: 0x8, addend: 0x0, symName: _OUTLINED_FUNCTION_38, symObjAddr: 0x34A04, symBinAddr: 0x100053748, symSize: 0xC }
  - { offset: 0xFD269, size: 0x8, addend: 0x0, symName: _OUTLINED_FUNCTION_39, symObjAddr: 0x34A10, symBinAddr: 0x100053754, symSize: 0xC }
  - { offset: 0xFD281, size: 0x8, addend: 0x0, symName: _OUTLINED_FUNCTION_40, symObjAddr: 0x34A1C, symBinAddr: 0x100053760, symSize: 0xC }
  - { offset: 0xFD299, size: 0x8, addend: 0x0, symName: _OUTLINED_FUNCTION_41, symObjAddr: 0x34A28, symBinAddr: 0x10005376C, symSize: 0xC }
  - { offset: 0xFD2B1, size: 0x8, addend: 0x0, symName: _OUTLINED_FUNCTION_42, symObjAddr: 0x34A34, symBinAddr: 0x100053778, symSize: 0x14 }
  - { offset: 0xFD2C9, size: 0x8, addend: 0x0, symName: _OUTLINED_FUNCTION_43, symObjAddr: 0x34A48, symBinAddr: 0x10005378C, symSize: 0xC }
...
